Archive member included because of file (symbol)

/root/Chaos/Binaries/DebugGDB/Modules/Static/ata.a(interface.o)
                              Kernel/Interfaces/init_init.o (ata_main)
/root/Chaos/Binaries/DebugGDB/Modules/Static/ata.a(ata.o)
                              /root/Chaos/Binaries/DebugGDB/Modules/Static/ata.a(interface.o) (ata_probe)
/root/Chaos/Binaries/DebugGDB/Modules/Static/ata.a(ata_drive_class.o)
                              /root/Chaos/Binaries/DebugGDB/Modules/Static/ata.a(interface.o) (ata_drive_class_register)
/root/Chaos/Binaries/DebugGDB/Modules/Static/ata.a(ata_manager_class.o)
                              /root/Chaos/Binaries/DebugGDB/Modules/Static/ata.a(interface.o) (ata_manager_class_register)
/root/Chaos/Binaries/DebugGDB/Modules/Static/ata.a(block_interface.o)
                              /root/Chaos/Binaries/DebugGDB/Modules/Static/ata.a(interface.o) (block_interface_register)
/root/Chaos/Binaries/DebugGDB/Modules/Static/ata.a(ata-internal.o)
                              /root/Chaos/Binaries/DebugGDB/Modules/Static/ata.a(ata.o) (ata_internal_probe)
/root/Chaos/Binaries/DebugGDB/Modules/Static/partition.a(interface.o)
                              Kernel/Interfaces/init_init.o (partition_main)
/root/Chaos/Binaries/DebugGDB/Modules/Static/partition.a(partition.o)
                              /root/Chaos/Binaries/DebugGDB/Modules/Static/partition.a(interface.o) (scan_for_partitions)
/root/Chaos/Binaries/DebugGDB/Modules/Static/partition.a(partition_class.o)
                              /root/Chaos/Binaries/DebugGDB/Modules/Static/partition.a(interface.o) (partition_class_register)
/root/Chaos/Binaries/DebugGDB/Modules/Static/partition.a(partition_manager_class.o)
                              /root/Chaos/Binaries/DebugGDB/Modules/Static/partition.a(interface.o) (partition_manager_class_register)
/root/Chaos/Binaries/DebugGDB/Modules/Static/vfat.a(interface.o)
                              Kernel/Interfaces/init_init.o (vfat_main)
/root/Chaos/Binaries/DebugGDB/Modules/Static/vfat.a(volume.o)
                              /root/Chaos/Binaries/DebugGDB/Modules/Static/vfat.a(interface.o) (vfat_has_file_system)
/root/Chaos/Binaries/DebugGDB/Modules/Static/vfat.a(directory_read_write.o)
                              /root/Chaos/Binaries/DebugGDB/Modules/Static/vfat.a(interface.o) (vfat_entry_add)
/root/Chaos/Binaries/DebugGDB/Modules/Static/vfat.a(common.o)
                              /root/Chaos/Binaries/DebugGDB/Modules/Static/vfat.a(directory_read_write.o) (vfat_8_dot_3_to_wstring)
/root/Chaos/Binaries/DebugGDB/Modules/Static/vfat.a(directory_entry.o)
                              /root/Chaos/Binaries/DebugGDB/Modules/Static/vfat.a(directory_read_write.o) (vfat_directory_entry_get_first_cluster)
/root/Chaos/Binaries/DebugGDB/Modules/Static/vfat.a(file.o)
                              /root/Chaos/Binaries/DebugGDB/Modules/Static/vfat.a(directory_entry.o) (vfat_file_read_region)
/root/Chaos/Binaries/DebugGDB/Modules/Static/vfat.a(low_fat.o)
                              /root/Chaos/Binaries/DebugGDB/Modules/Static/vfat.a(file.o) (vfat_raw_read_cluster)
/root/Chaos/Binaries/DebugGDB/Modules/Static/vfat.a(low_fat12.o)
                              /root/Chaos/Binaries/DebugGDB/Modules/Static/vfat.a(volume.o) (fat12_get_next_cluster)
/root/Chaos/Binaries/DebugGDB/Modules/Static/vfat.a(low_fat16.o)
                              /root/Chaos/Binaries/DebugGDB/Modules/Static/vfat.a(volume.o) (fat16_get_next_cluster)
/root/Chaos/Binaries/DebugGDB/Modules/Static/vfat.a(low_fat32.o)
                              /root/Chaos/Binaries/DebugGDB/Modules/Static/vfat.a(volume.o) (fat32_get_next_cluster)
/root/Chaos/Binaries/DebugGDB/Modules/Static/vfat.a(read_write.o)
                              /root/Chaos/Binaries/DebugGDB/Modules/Static/vfat.a(file.o) (next_cluster)
/root/Chaos/Binaries/Libraries/list.a(list.o)
                              Repository/Computer/system.o (list_create)
/root/Chaos/Binaries/Libraries/pool_of_integers.a(pool_of_integers.o)
                              Hardware/PhysicalMemory/internal.o (pool_of_integers_init)
/root/Chaos/Binaries/Libraries/pool_of_ranges.a(id_pool.o)
                              Hardware/PhysicalMemory/allocate.o (pool_allocate)
/root/Chaos/Binaries/Libraries/avl_tree.a(avl.o)
                              /root/Chaos/Binaries/Libraries/pool_of_ranges.a(id_pool.o) (avl_tree_delete_node)
/root/Chaos/Binaries/Libraries/avl_tree.a(avl_util.o)
                              /root/Chaos/Binaries/Libraries/avl_tree.a(avl.o) (exchange)
/root/Chaos/Binaries/Libraries/string.a(character.o)
                              /root/Chaos/Binaries/DebugGDB/Modules/Static/vfat.a(directory_read_write.o) (char_to_upper_case)
/root/Chaos/Binaries/Libraries/string.a(format.o)
                              Hardware/SystemDebug/debug.o (string_print)
/root/Chaos/Binaries/Libraries/string.a(general-inlines.o)
                              /root/Chaos/Binaries/Libraries/string.a(format.o) (string_scn)
/root/Chaos/Binaries/Libraries/string.a(wformat.o)
                              Kernel/Interfaces/init_init.o (wstring_print)
/root/Chaos/Binaries/Libraries/string.a(wstring-inlines.o)
                              /root/Chaos/Binaries/Libraries/string.a(wformat.o) (wstring_scn)
/root/Chaos/Binaries/Libraries/string.a(conversions.o)
                              /root/Chaos/Binaries/Libraries/string.a(format.o) (string_to_double)
/root/Chaos/Binaries/Libraries/string.a(wconversions.o)
                              /root/Chaos/Binaries/Libraries/string.a(wformat.o) (wstring_to_double)
/root/Chaos/Binaries/Libraries/hash_table.a(hash_table.o)
                              Kernel/Interfaces/flat_namespace_object_factory.o (hash_table_create)

Allocating common symbols
Common symbol       size              file

irq14_supplier      0x4               /root/Chaos/Binaries/DebugGDB/Modules/Static/ata.a(interface.o)
irq14_queue         0x4               /root/Chaos/Binaries/DebugGDB/Modules/Static/ata.a(interface.o)
irq14_consumer      0x4               /root/Chaos/Binaries/DebugGDB/Modules/Static/ata.a(interface.o)
irq15_consumer      0x4               /root/Chaos/Binaries/DebugGDB/Modules/Static/ata.a(interface.o)
registers           0x40              Hardware/SystemDebug/gdb.o
___strtok           0x4               /root/Chaos/Binaries/Libraries/string.a(general-inlines.o)
cpu_kernel          0x30              Repository/Cpu/system.o
multiboot_info      0x34              Hardware/Boot/multiboot.o
irq15_queue         0x4               /root/Chaos/Binaries/DebugGDB/Modules/Static/ata.a(interface.o)
node_allocator_global
                    0x3e8             Hardware/PhysicalMemory/internal.o
computers           0x1c              Repository/Computer/internal.o
node_pool_global    0x6d60            Hardware/PhysicalMemory/internal.o
pit_divisor         0x6               Hardware/Timer/pit.o
storm_module_objects
                    0x4               Kernel/Interfaces/init_init.o
pit_mode            0x3               Hardware/Timer/pit.o
dma_channels        0x54              Hardware/Dma/dma.o
exception_handlers_data
                    0x50              Hardware/Exception/init.o
ata_drive_class     0x4               /root/Chaos/Binaries/DebugGDB/Modules/Static/ata.a(interface.o)
debug_event_class   0x4               Kernel/Events/debug_supplier_init.o
cpu_info_global     0x105             Hardware/Cpu/init.o
remcomStack         0x2710            Hardware/SystemDebug/gdb.o
kernel_class        0x4               Kernel/./init.o
irq15_supplier      0x4               /root/Chaos/Binaries/DebugGDB/Modules/Static/ata.a(interface.o)
kernel_object       0x4               Kernel/./init.o
exception_handlers  0x50              Hardware/Exception/init.o
gdb_i386errcode     0x4               Hardware/SystemDebug/gdb.o
kernel_stack        0x10000           Hardware/Boot/init.o
partition_class     0x4               /root/Chaos/Binaries/DebugGDB/Modules/Static/partition.a(interface.o)

Memory Configuration

Name             Origin             Length             Attributes
*default*        0x00000000         0xffffffff

Linker script and memory map

LOAD ./init.o
LOAD Hardware/Boot/init.o
LOAD Hardware/Boot/multiboot.o
LOAD Hardware/Boot/parse.o
LOAD Hardware/SystemDebug/debug.o
LOAD Hardware/SystemDebug/gdb.o
LOAD Hardware/Cpu/bugs.o
LOAD Hardware/Cpu/halt.o
LOAD Hardware/Cpu/identification.o
LOAD Hardware/Cpu/init.o
LOAD Hardware/Cpu/lock.o
LOAD Hardware/Cpu/speed.o
LOAD Hardware/Irq/irq.o
LOAD Hardware/Irq/pic.o
LOAD Hardware/Exception/handlers.o
LOAD Hardware/Exception/init.o
LOAD Hardware/Clock/time.o
LOAD Hardware/Dma/controller.o
LOAD Hardware/Dma/dma.o
LOAD Hardware/Timer/pit.o
LOAD Hardware/Timer/timer.o
LOAD Hardware/PhysicalMemory/allocate.o
LOAD Hardware/PhysicalMemory/check.o
LOAD Hardware/PhysicalMemory/deallocate.o
LOAD Hardware/PhysicalMemory/init.o
LOAD Hardware/PhysicalMemory/internal.o
LOAD Hardware/PhysicalMemory/reallocate.o
LOAD Hardware/PhysicalMemory/reserve.o
LOAD Hardware/VirtualMemory/allocate.o
LOAD Hardware/VirtualMemory/create.o
LOAD Hardware/VirtualMemory/deallocate.o
LOAD Hardware/VirtualMemory/destroy.o
LOAD Hardware/VirtualMemory/init.o
LOAD Hardware/VirtualMemory/internal.o
LOAD Hardware/VirtualMemory/page.o
LOAD Hardware/VirtualMemory/reserve.o
LOAD Hardware/TaskState/task_state.o
LOAD Hardware/TaskState/tss.o
LOAD Hardware/IoPort/port.o
LOAD Hardware/Elf/elf.o
LOAD Hardware/SystemCall/system_call.o
LOAD Repository/./repository.o
LOAD Repository/Reference/system.o
LOAD Repository/Descriptions/Method/system.o
LOAD Repository/Descriptions/Interface/system.o
LOAD Repository/Descriptions/Class/system.o
LOAD Repository/Descriptions/Event/system.o
LOAD Repository/Method/init.o
LOAD Repository/Method/internal.o
LOAD Repository/Method/parameters_check.o
LOAD Repository/Method/security_check.o
LOAD Repository/Method/static.o
LOAD Repository/Method/system.o
LOAD Repository/Method/transaction.o
LOAD Repository/Interface/init.o
LOAD Repository/Interface/internal.o
LOAD Repository/Interface/parameters_check.o
LOAD Repository/Interface/security_check.o
LOAD Repository/Interface/static.o
LOAD Repository/Interface/system.o
LOAD Repository/Interface/transaction.o
LOAD Repository/EventSupplierInterface/init.o
LOAD Repository/EventSupplierInterface/internal.o
LOAD Repository/EventSupplierInterface/parameters_check.o
LOAD Repository/EventSupplierInterface/security_check.o
LOAD Repository/EventSupplierInterface/static.o
LOAD Repository/EventSupplierInterface/system.o
LOAD Repository/EventSupplierInterface/transaction.o
LOAD Repository/EventSupplier/system.o
LOAD Repository/EventConsumerInterface/init.o
LOAD Repository/EventConsumerInterface/internal.o
LOAD Repository/EventConsumerInterface/parameters_check.o
LOAD Repository/EventConsumerInterface/security_check.o
LOAD Repository/EventConsumerInterface/static.o
LOAD Repository/EventConsumerInterface/system.o
LOAD Repository/EventConsumerInterface/transaction.o
LOAD Repository/Class/init.o
LOAD Repository/Class/internal.o
LOAD Repository/Class/parameters_check.o
LOAD Repository/Class/security_check.o
LOAD Repository/Class/static.o
LOAD Repository/Class/system.o
LOAD Repository/Class/transaction.o
LOAD Repository/Security/internal.o
LOAD Repository/Security/parameters_check.o
LOAD Repository/Security/security_check.o
LOAD Repository/Security/static.o
LOAD Repository/Security/system.o
LOAD Repository/Cpu/init.o
LOAD Repository/Cpu/internal.o
LOAD Repository/Cpu/system.o
LOAD Repository/Memory/memory.o
LOAD Repository/Memory/slab.o
LOAD Repository/Memory/system.o
LOAD Repository/Computer/internal.o
LOAD Repository/Computer/scheduler.o
LOAD Repository/Computer/system.o
LOAD Repository/Object/init.o
LOAD Repository/Object/internal.o
LOAD Repository/Object/parameters_check.o
LOAD Repository/Object/security_check.o
LOAD Repository/Object/static.o
LOAD Repository/Object/system.o
LOAD Repository/Object/transaction.o
LOAD Repository/Handle/init.o
LOAD Repository/Handle/internal.o
LOAD Repository/Handle/parameters_check.o
LOAD Repository/Handle/security_check.o
LOAD Repository/Handle/static.o
LOAD Repository/Handle/system.o
LOAD Repository/EventQueue/system.o
LOAD Repository/Quality/system.o
LOAD Kernel/./init.o
LOAD Kernel/Interfaces/flat_namespace_object_factory.o
LOAD Kernel/Interfaces/flat_namespace_object_factory_interface.o
LOAD Kernel/Interfaces/init_init.o
LOAD Kernel/Interfaces/init_interface.o
LOAD Kernel/Interfaces/irq_supplier_factory_init.o
LOAD Kernel/Interfaces/irq_supplier_factory_interface.o
LOAD Kernel/Interfaces/namespace_init.o
LOAD Kernel/Interfaces/namespace_interface.o
LOAD Kernel/Interfaces/storm_module_factory.o
LOAD Kernel/Interfaces/storm_module_factory_interface.o
LOAD Kernel/Interfaces/storm_program_factory.o
LOAD Kernel/Interfaces/storm_program_factory_interface.o
LOAD Kernel/Interfaces/timer_interface.o
LOAD Kernel/Interfaces/timer_interface_init.o
LOAD Kernel/Events/debug_consumer_init.o
LOAD Kernel/Events/debug_event_class.o
LOAD Kernel/Events/debug_supplier_init.o
LOAD Kernel/Events/irq_event_class.o
LOAD Kernel/Events/irq_supplier_init.o
LOAD Kernel/Classes/flat_namespace_init.o
LOAD Kernel/Classes/flat_namespace_interface.o
LOAD Kernel/Classes/flat_namespace_object.o
LOAD Kernel/Classes/storm_module.o
LOAD Kernel/Classes/storm_module_control_init.o
LOAD Kernel/Classes/storm_module_control_interface.o
LOAD Kernel/Classes/storm_program.o
LOAD Kernel/Classes/storm_program_control_init.o
LOAD Kernel/Classes/storm_program_control_interface.o
LOAD Hardware/Irq/handlers_lowlevel.o
LOAD Hardware/Exception/handlers_lowlevel.o
LOAD Hardware/TaskState/task_state_lowlevel.o
LOAD Hardware/SystemCall/handlers_lowlevel.o
LOAD Repository/Computer/jump_lowlevel.o
LOAD /root/Chaos/Binaries/DebugGDB/Modules/Static/ata.a
LOAD /root/Chaos/Binaries/DebugGDB/Modules/Static/partition.a
LOAD /root/Chaos/Binaries/DebugGDB/Modules/Static/vfat.a
LOAD /root/Chaos/Binaries/Libraries/list.a
LOAD /root/Chaos/Binaries/Libraries/pool_of_integers.a
LOAD /root/Chaos/Binaries/Libraries/pool_of_ranges.a
LOAD /root/Chaos/Binaries/Libraries/avl_tree.a
LOAD /root/Chaos/Binaries/Libraries/string.a
LOAD /root/Chaos/Binaries/Libraries/hash_table.a
                0x00100074                . = (0x100000 + SIZEOF_HEADERS)

.interp
 *(.interp)

.hash
 *(.hash)

.dynsym
 *(.dynsym)

.dynstr
 *(.dynstr)

.gnu.version
 *(.gnu.version)

.gnu.version_d
 *(.gnu.version_d)

.gnu.version_r
 *(.gnu.version_r)

.rel.init
 *(.rel.init)

.rela.init
 *(.rela.init)

.rel.text
 *(.rel.text)
 *(.rel.text.*)
 *(.rel.gnu.linkonce.t.*)

.rela.text
 *(.rela.text)
 *(.rela.text.*)
 *(.rela.gnu.linkonce.t.*)

.rel.fini
 *(.rel.fini)

.rela.fini
 *(.rela.fini)

.rel.rodata
 *(.rel.rodata)
 *(.rel.rodata.*)
 *(.rel.gnu.linkonce.r.*)

.rela.rodata
 *(.rela.rodata)
 *(.rela.rodata.*)
 *(.rela.gnu.linkonce.r.*)

.rel.data
 *(.rel.data)
 *(.rel.data.*)
 *(.rel.gnu.linkonce.d.*)

.rela.data
 *(.rela.data)
 *(.rela.data.*)
 *(.rela.gnu.linkonce.d.*)

.rel.ctors
 *(.rel.ctors)

.rela.ctors
 *(.rela.ctors)

.rel.dtors
 *(.rel.dtors)

.rela.dtors
 *(.rela.dtors)

.rel.got
 *(.rel.got)

.rela.got
 *(.rela.got)

.rel.sdata
 *(.rel.sdata)
 *(.rel.sdata.*)
 *(.rel.gnu.linkonce.s.*)

.rela.sdata
 *(.rela.sdata)
 *(.rela.sdata.*)
 *(.rela.gnu.linkonce.s.*)

.rel.sbss
 *(.rel.sbss)
 *(.rel.sbss.*)
 *(.rel.gnu.linkonce.sb.*)

.rela.sbss
 *(.rela.sbss)
 *(.rela.sbss.*)
 *(.rel.gnu.linkonce.sb.*)

.rel.sdata2
 *(.rel.sdata2)
 *(.rel.sdata2.*)
 *(.rel.gnu.linkonce.s2.*)

.rela.sdata2
 *(.rela.sdata2)
 *(.rela.sdata2.*)
 *(.rela.gnu.linkonce.s2.*)

.rel.sbss2
 *(.rel.sbss2)
 *(.rel.sbss2.*)
 *(.rel.gnu.linkonce.sb2.*)

.rela.sbss2
 *(.rela.sbss2)
 *(.rela.sbss2.*)
 *(.rela.gnu.linkonce.sb2.*)

.rel.bss
 *(.rel.bss)
 *(.rel.bss.*)
 *(.rel.gnu.linkonce.b.*)

.rela.bss
 *(.rela.bss)
 *(.rela.bss.*)
 *(.rela.gnu.linkonce.b.*)

.rel.plt
 *(.rel.plt)

.rela.plt
 *(.rela.plt)

.init.pre       0x00100074        0xc
 *(.init.pre)
 .init.pre      0x00100074        0xc Hardware/Boot/multiboot.o
                0x00100074                multiboot_header

.init
 *(.text.init)
 *(.data.init)
                0x00101000                . = ALIGN (0x1000)

.special        0x00101000     0x1000
 *(.gdt)
 .gdt           0x00101000      0x800 Hardware/Boot/init.o
                0x00101000                gdt
 *(.idt)
 .idt           0x00101800      0x800 Hardware/Boot/init.o
                0x00101800                idt
                0x00102000                . = ALIGN (0x1000)
                0x00102000                _init_end = .

.text           0x00102000    0x2378e
 *(.text)
 .text          0x00102000      0x6de ./init.o
                0x001022e0                main_bootup
 *fill*         0x001026de        0x2 9090
 .text          0x001026e0       0xcf Hardware/Boot/init.o
                0x00102730                _start
 *fill*         0x001027af        0x1 9090
 .text          0x001027b0      0x24f Hardware/Boot/multiboot.o
                0x001027b0                multiboot_init
 *fill*         0x001029ff        0x1 9090
 .text          0x00102a00      0x10f Hardware/Boot/parse.o
                0x00102a00                arguments_parse
 *fill*         0x00102b0f        0x1 9090
 .text          0x00102b10      0x4f1 Hardware/SystemDebug/debug.o
                0x00102d90                system_debug_printw
                0x00102c30                system_debug_print
                0x00102b10                system_debug_init
 *fill*         0x00103001        0xf 9090
 .text          0x00103010     0x18f2 Hardware/SystemDebug/gdb.o
                0x00103968                catchException16
                0x00103539                catchException5
                0x001039fe                catchException13
                0x0010325e                return_to_prog
                0x00103b52                catchException14
                0x00103aa8                catchException11
                0x001034a3                catchException4
                0x001032e1                catchException3
                0x00103eb0                get_char
                0x001036fb                catchException8
                0x001046b0                gdb_set_debug_traps
                0x0010340d                catchException0
                0x001038cb                catchException12
                0x001032c0                gdb_i386vector
                0x0010382e                catchException10
                0x00103377                catchException1
                0x00103665                catchException7
                0x001041f0                handle_exception
                0x00103ec0                set_char
                0x00103798                catchException9
                0x001035cf                catchException6
                0x00103010                gdb_serial_init
 *fill*         0x00104902        0xe 9090
 .text          0x00104910       0x8b Hardware/Cpu/bugs.o
                0x00104910                cpu_bugs_search
 *fill*         0x0010499b        0x5 9090
 .text          0x001049a0       0x66 Hardware/Cpu/halt.o
                0x001049a0                cpu_halt
 *fill*         0x00104a06        0xa 9090
 .text          0x00104a10      0xc2f Hardware/Cpu/identification.o
                0x001053c0                cpu_id_detect
 *fill*         0x0010563f        0x1 9090
 .text          0x00105640      0x135 Hardware/Cpu/init.o
                0x00105670                cpu_init
                0x00105640                cpu_get_info
 *fill*         0x00105775        0xb 9090
 .text          0x00105780       0x56 Hardware/Cpu/lock.o
                0x00105780                cpu_lock
                0x001057a0                cpu_unlock
 *fill*         0x001057d6        0xa 9090
 .text          0x001057e0      0x1f8 Hardware/Cpu/speed.o
                0x00105960                cpu_speed_get
 *fill*         0x001059d8        0x8 9090
 .text          0x001059e0      0x2d3 Hardware/Irq/irq.o
                0x00105b40                irq_register
                0x00105ba0                irq_unregister
                0x001059e0                irq_init
                0x00105bd0                irq_set_post_handler
 *fill*         0x00105cb3        0xd 9090
 .text          0x00105cc0      0x304 Hardware/Irq/pic.o
                0x00105ec0                pic_enable_all_irq
                0x00105d60                pic_enable_irq
                0x00105f40                pic_acknowledge
                0x00105cc0                pic_remap_irq
                0x00105f30                pic_init
                0x00105e10                pic_disable_irq
                0x00105ef0                pic_disable_all_irq
 *fill*         0x00105fc4        0xc 9090
 .text          0x00105fd0      0xba4 Hardware/Exception/init.o
                0x00106940                exception_register
                0x00106a50                exception_unregister
                0x001066f0                exception_print_screen
                0x00106ae0                exception_init
 *fill*         0x00106b74        0xc 9090
 .text          0x00106b80      0x3c8 Hardware/Clock/time.o
                0x00106e10                clock_init
 *fill*         0x00106f48        0x8 9090
 .text          0x00106f50      0x490 Hardware/Dma/controller.o
                0x00107060                dma_contoller_disable_channel
                0x00107020                dma_contoller_enable_channel
                0x00107380                dma_controller_transfer_cancel
                0x00106f50                dma_controller_init
                0x001070b0                dma_controller_transfer_start
 .text          0x001073e0      0x1d8 Hardware/Dma/dma.o
                0x001074d0                dma_unregister
                0x00107500                dma_transfer
                0x00107480                dma_register
                0x001073e0                dma_init
 *fill*         0x001075b8        0x8 9090
 .text          0x001075c0      0x158 Hardware/Timer/pit.o
                0x001075c0                pit_init
                0x00107600                pit_frequency_set
                0x00107680                pit_counter_read
                0x001075d0                pit_mode_set
 *fill*         0x00107718        0x8 9090
 .text          0x00107720      0x308 Hardware/Timer/timer.o
                0x00107940                timer_write
                0x001079c0                timer_unregister_handler
                0x00107880                timer_set_period
                0x00107a00                timer_init
                0x00107970                timer_register_handler
                0x001077b0                timer_start
                0x00107910                timer_read
                0x00107830                timer_stop
                0x001078d0                timer_set_mode
 *fill*         0x00107a28        0x8 9090
 .text          0x00107a30       0xa9 Hardware/PhysicalMemory/allocate.o
                0x00107a30                physical_memory_allocate
 *fill*         0x00107ad9        0x7 9090
 .text          0x00107ae0        0xa Hardware/PhysicalMemory/check.o
                0x00107ae0                physical_memory_check
 *fill*         0x00107aea        0x6 9090
 .text          0x00107af0       0x41 Hardware/PhysicalMemory/deallocate.o
                0x00107af0                physical_memory_deallocate
 *fill*         0x00107b31        0xf 9090
 .text          0x00107b40      0x411 Hardware/PhysicalMemory/init.o
                0x00107d20                physical_memory_init
                0x00107d10                physical_memory_get_free_pages
                0x00107d00                physical_memory_get_total_pages
 *fill*         0x00107f51        0xf 9090
 .text          0x00107f60       0xc3 Hardware/PhysicalMemory/internal.o
                0x00107fe0                internal_memory_deallocate
                0x00107f60                internal_memory_init
                0x00107f80                internal_memory_deinit
                0x00107f90                internal_memory_allocate
 *fill*         0x00108023        0xd 9090
 .text          0x00108030        0xa Hardware/PhysicalMemory/reallocate.o
                0x00108030                physical_memory_reallocate
 *fill*         0x0010803a        0x6 9090
 .text          0x00108040       0x41 Hardware/PhysicalMemory/reserve.o
                0x00108040                physical_memory_reserve
 *fill*         0x00108081        0xf 9090
 .text          0x00108090      0x329 Hardware/VirtualMemory/allocate.o
                0x00108090                virtual_memory_allocate
 *fill*         0x001083b9        0x7 9090
 .text          0x001083c0      0x293 Hardware/VirtualMemory/create.o
                0x001083c0                virtual_memory_create
 *fill*         0x00108653        0xd 9090
 .text          0x00108660       0x36 Hardware/VirtualMemory/deallocate.o
                0x00108660                virtual_memory_deallocate
 *fill*         0x00108696        0xa 9090
 .text          0x001086a0       0x33 Hardware/VirtualMemory/destroy.o
                0x001086a0                virtual_memory_destroy
 *fill*         0x001086d3        0xd 9090
 .text          0x001086e0      0x114 Hardware/VirtualMemory/init.o
                0x001086e0                virtual_memory_map
                0x00108760                virtual_memory_lookup
                0x001087e0                virtual_memory_init
 *fill*         0x001087f4        0xc 9090
 .text          0x00108800       0xd3 Hardware/VirtualMemory/internal.o
                0x00108890                internal_memory_deallocate2
                0x00108800                internal_memory_init2
                0x00108830                internal_memory_deinit2
                0x00108840                internal_memory_allocate2
 *fill*         0x001088d3        0xd 9090
 .text          0x001088e0      0x653 Hardware/VirtualMemory/page.o
                0x001088e0                page_lookup
                0x00108ac0                page_map
                0x00108c90                page_map_4mb
                0x00108d50                page_init
 *fill*         0x00108f33        0xd 9090
 .text          0x00108f40      0x2ab Hardware/VirtualMemory/reserve.o
                0x00108f40                virtual_memory_reserve
 *fill*         0x001091eb        0x5 9090
 .text          0x001091f0      0x187 Hardware/TaskState/task_state.o
                0x00109290                task_state_init
                0x00109280                task_state_switch_finish_internal
                0x00109260                task_state_switch_prepare
                0x00109250                task_state_destroy
                0x001091f0                task_state_create
 *fill*         0x00109377        0x9 9090
 .text          0x00109380      0x217 Hardware/TaskState/tss.o
                0x00109380                tss_create
                0x00109460                tss_switch_prepare
 *fill*         0x00109597        0x9 9090
 .text          0x001095a0       0x2a Hardware/IoPort/port.o
                0x001095b0                io_port_register
                0x001095a0                io_port_init
                0x001095c0                io_port_unregister
 *fill*         0x001095ca        0x6 9090
 .text          0x001095d0      0xd74 Hardware/Elf/elf.o
                0x00109fc0                elf_load_program
                0x00109d50                elf_symbol_find_by_name
                0x0010a2b0                elf_get_entry_point
                0x00109830                elf_resolve
                0x001095d0                elf_identify
                0x00109f80                elf_parse_program
                0x00109cf0                elf_symbol_find_by_index
                0x001099e0                elf_relocate
                0x001096e0                elf_parse
                0x00109e00                elf_load_module
 *fill*         0x0010a344        0xc 9090
 .text          0x0010a350      0x273 Hardware/SystemCall/system_call.o
                0x0010a350                system_call_init
                0x0010a3c0                system_call
 *fill*         0x0010a5c3        0xd 9090
 .text          0x0010a5d0       0x4e Repository/./repository.o
                0x0010a5d0                repository_init
 *fill*         0x0010a61e        0x2 9090
 .text          0x0010a620      0x23a Repository/Reference/system.o
                0x0010a6a0                reference_get_number_of_references
                0x0010a700                reference_equals
                0x0010a680                reference_get_owner
                0x0010a620                reference_acquire
                0x0010a6e0                reference_is_exists
                0x0010a6c0                reference_is_nill
                0x0010a640                reference_release
                0x0010a660                reference_get_type
 *fill*         0x0010a85a        0x6 9090
 .text          0x0010a860       0x75 Repository/Descriptions/Method/system.o
                0x0010a8d0                method_description_unregister
                0x0010a860                method_description_register
 *fill*         0x0010a8d5        0xb 9090
 .text          0x0010a8e0       0x65 Repository/Descriptions/Interface/system.o
                0x0010a940                interface_description_unregister
                0x0010a8e0                interface_description_register
 *fill*         0x0010a945        0xb 9090
 .text          0x0010a950       0x75 Repository/Descriptions/Class/system.o
                0x0010a950                class_description_register
                0x0010a9c0                class_description_unregister
 *fill*         0x0010a9c5        0xb 9090
 .text          0x0010a9d0       0x55 Repository/Descriptions/Event/system.o
                0x0010a9d0                event_description_register
                0x0010aa20                event_description_unregister
 *fill*         0x0010aa25        0xb 9090
 .text          0x0010aa30        0xd Repository/Method/init.o
                0x0010aa30                repository_method_init
 *fill*         0x0010aa3d        0x3 9090
 .text          0x0010aa40      0x259 Repository/Method/static.o
                0x0010aa40                method_create_static
                0x0010aa70                method_destroy_static
 *fill*         0x0010ac99        0x7 9090
 .text          0x0010aca0      0x449 Repository/Method/system.o
                0x0010ad20                method_invoke
                0x0010aca0                method_create
                0x0010acf0                method_destroy
 *fill*         0x0010b0e9        0x3 9090
 *fill*         0x0010b0ec        0x4 9090
 .text          0x0010b0f0        0xd Repository/Interface/init.o
                0x0010b0f0                repository_interface_init
 *fill*         0x0010b0fd        0x3 9090
 .text          0x0010b100      0x3b9 Repository/Interface/static.o
                0x0010b130                interface_destroy_static
                0x0010b100                interface_create_static
 *fill*         0x0010b4b9        0x7 9090
 .text          0x0010b4c0      0x519 Repository/Interface/system.o
                0x0010b4c0                interface_create
                0x0010b510                interface_destroy
 *fill*         0x0010b9d9        0x3 9090
 *fill*         0x0010b9dc        0x4 9090
 .text          0x0010b9e0        0xd Repository/EventSupplierInterface/init.o
                0x0010b9e0                repository_event_supplier_interface_init
 *fill*         0x0010b9ed        0x3 9090
 .text          0x0010b9f0      0x2e9 Repository/EventSupplierInterface/static.o
                0x0010b9f0                event_supplier_interface_create_static
                0x0010ba20                event_supplier_interface_destroy_static
 *fill*         0x0010bcd9        0x7 9090
 .text          0x0010bce0      0x379 Repository/EventSupplierInterface/system.o
                0x0010bd20                event_supplier_interface_destroy
                0x0010bd40                event_supplier_interface_set_factory
                0x0010bce0                event_supplier_interface_create
 *fill*         0x0010c059        0x3 9090
 *fill*         0x0010c05c        0x4 9090
 .text          0x0010c060      0xd7b Repository/EventSupplier/system.o
                0x0010c250                event_consumer_destroy
                0x0010c1a0                event_supplier_set_queue
                0x0010c110                event_supplier_fire_event
                0x0010c2c0                event_consumer_set_queue
                0x0010c1d0                event_consumer_create
                0x0010c300                repository_event_consumer_init
                0x0010c150                event_supplier_set_data
                0x0010c2f0                repository_event_supplier_init
                0x0010c180                event_supplier_get_data
                0x0010c280                event_consumer_wait_event
                0x0010c060                event_supplier_create
                0x0010c0e0                event_supplier_destroy
 *fill*         0x0010cddb        0x5 9090
 .text          0x0010cde0        0xd Repository/EventConsumerInterface/init.o
                0x0010cde0                repository_event_consumer_interface_init
 *fill*         0x0010cded        0x3 9090
 .text          0x0010cdf0      0x2e9 Repository/EventConsumerInterface/static.o
                0x0010ce20                event_consumer_interface_destroy_static
                0x0010cdf0                event_consumer_interface_create_static
 *fill*         0x0010d0d9        0x7 9090
 .text          0x0010d0e0      0x379 Repository/EventConsumerInterface/system.o
                0x0010d0e0                event_consumer_interface_create
                0x0010d120                event_consumer_interface_destroy
                0x0010d140                event_consumer_interface_set_factory
 *fill*         0x0010d459        0x3 9090
 *fill*         0x0010d45c        0x4 9090
 .text          0x0010d460        0xd Repository/Class/init.o
                0x0010d460                repository_class_init
 *fill*         0x0010d46d        0x3 9090
 .text          0x0010d470      0x569 Repository/Class/static.o
                0x0010d4a0                class_destroy_static
                0x0010d470                class_create_static
 *fill*         0x0010d9d9        0x7 9090
 .text          0x0010d9e0      0x8f9 Repository/Class/system.o
                0x0010dac0                class_get_interface_by_id
                0x0010da50                class_destroy
                0x0010d9e0                class_create
                0x0010da80                class_set_interfaces
 *fill*         0x0010e2d9        0x3 9090
 *fill*         0x0010e2dc        0x4 9090
 .text          0x0010e2e0      0x289 Repository/Security/internal.o
                0x0010e320                security_create_internal
                0x0010e380                security_destroy_internal
                0x0010e300                security_destroy_static_internal
                0x0010e2e0                security_create_static_internal
 *fill*         0x0010e569        0x3 9090
 *fill*         0x0010e56c        0x4 9090
 .text          0x0010e570       0x4e Repository/Security/static.o
                0x0010e5a0                security_destroy_static
                0x0010e570                security_create_static
 *fill*         0x0010e5be        0x2 9090
 .text          0x0010e5c0       0xa7 Repository/Security/system.o
                0x0010e620                security_get_current
                0x0010e5f0                security_destroy
                0x0010e5c0                security_create
 *fill*         0x0010e667        0x9 9090
 .text          0x0010e670        0x5 Repository/Cpu/init.o
                0x0010e670                repository_cpu_init
 *fill*         0x0010e675        0xb 9090
 .text          0x0010e680      0x100 Repository/Cpu/internal.o
                0x0010e680                cpu_create_internal
                0x0010e6f0                cpu_get_current
                0x0010e700                cpu_sleep_milli
                0x0010e6d0                cpu_destroy_internal
 .text          0x0010e780       0x18 Repository/Cpu/system.o
                0x0010e780                cpu_create
 *fill*         0x0010e798        0x8 9090
 .text          0x0010e7a0       0x5a Repository/Memory/memory.o
                0x0010e7f0                memory_deallocate
                0x0010e7a0                memory_allocate
 *fill*         0x0010e7fa        0x6 9090
 .text          0x0010e800      0x23c Repository/Memory/slab.o
                0x0010e890                slab_superblock_init
                0x0010e800                slab_heap_index
                0x0010e840                slab_heap_init
 *fill*         0x0010ea3c        0x4 9090
 .text          0x0010ea40      0x12b Repository/Memory/system.o
                0x0010ea40                memory_create
                0x0010ea90                repository_memory_init
 *fill*         0x0010eb6b        0x5 9090
 .text          0x0010eb70     0x123e Repository/Computer/internal.o
                0x0010fa90                computer_call_function
                0x0010ec20                computer_stop
                0x0010eca0                computer_schedule_prepare
                0x0010ed50                computer_invoke_internal
                0x0010f460                computer_begin
                0x0010f120                computer_invoke_async_internal
                0x0010f8a0                computer_return
                0x0010eb70                computer_start
 *fill*         0x0010fdae        0x2 9090
 .text          0x0010fdb0       0xa3 Repository/Computer/scheduler.o
                0x0010fdb0                scheduler_get_next_computer
                0x0010fe00                scheduler_add_computer
                0x0010fe30                scheduler_remove_computer
 *fill*         0x0010fe53        0xd 9090
 .text          0x0010fe60      0x543 Repository/Computer/system.o
                0x0010fe60                computer_create
                0x0010ffc0                computer_reset
                0x0010ffa0                computer_destroy
                0x001100a0                computer_remove_exception_context
                0x00110320                repository_computer_init
                0x00110020                computer_get_current
                0x00110030                computer_add_exception_context
                0x001100e0                computer_fire_exception
 *fill*         0x001103a3        0xd 9090
 .text          0x001103b0        0xd Repository/Object/init.o
                0x001103b0                repository_object_init
 *fill*         0x001103bd        0x3 9090
 .text          0x001103c0      0x76b Repository/Object/static.o
                0x001103c0                object_create_static
                0x00110400                object_destroy_static
 *fill*         0x00110b2b        0x5 9090
 .text          0x00110b30      0xaeb Repository/Object/system.o
                0x00110c40                object_set_data
                0x00110c10                object_get_data
                0x00110bd0                object_get_current
                0x00110ba0                object_destroy
                0x00110cb0                object_get_interface_by_id
                0x00110c80                object_get_class
                0x00110c00                object_get_kernel
                0x00110d10                object_set_security
                0x00110b30                object_create
                0x00110ce0                object_get_security
 *fill*         0x0011161b        0x1 9090
 *fill*         0x0011161c        0x4 9090
 .text          0x00111620        0xd Repository/Handle/init.o
                0x00111620                repository_handle_init
 *fill*         0x0011162d        0x3 9090
 .text          0x00111630      0x399 Repository/Handle/static.o
                0x00111630                handle_create_static
                0x00111670                handle_destroy_static
                0x00111690                handle_clone_static
 *fill*         0x001119c9        0x7 9090
 .text          0x001119d0      0x80e Repository/Handle/system.o
                0x00111a30                handle_destroy
                0x00111a60                handle_clone
                0x001119d0                handle_create
                0x00111aa0                handle_invoke_method
 *fill*         0x001121de        0x2 9090
 .text          0x001121e0      0x1a9 Repository/EventQueue/system.o
                0x00112230                event_queue_destroy
                0x001121e0                event_queue_create
 *fill*         0x00112389        0x7 9090
 .text          0x00112390       0x15 Repository/Quality/system.o
                0x001123a0                quality_reset
                0x00112390                quality_set
 *fill*         0x001123a5        0xb 9090
 .text          0x001123b0      0x23b Kernel/./init.o
                0x001123b0                kernel_init
 *fill*         0x001125eb        0x5 9090
 .text          0x001125f0      0x1b2 Kernel/Interfaces/flat_namespace_object_factory.o
                0x00112750                flat_namespace_object_factory_init
 *fill*         0x001127a2        0xe 9090
 .text          0x001127b0      0x22a Kernel/Interfaces/flat_namespace_object_factory_interface.o
                0x00112860                flat_namespace_object_factory_interface_register
 *fill*         0x001129da        0x6 9090
 .text          0x001129e0      0xa75 Kernel/Interfaces/init_init.o
                0x00113100                kernel_control_init
 *fill*         0x00113455        0xb 9090
 .text          0x00113460      0x2ba Kernel/Interfaces/init_interface.o
                0x00113580                kernel_control_interface_register
 *fill*         0x0011371a        0x6 9090
 .text          0x00113720       0xdb Kernel/Interfaces/irq_supplier_factory_init.o
                0x001137b0                irq_supplier_factory_init
 *fill*         0x001137fb        0x5 9090
 .text          0x00113800      0x1fa Kernel/Interfaces/irq_supplier_factory_interface.o
                0x00113890                irq_supplier_factory_interface_register
 *fill*         0x001139fa        0x6 9090
 .text          0x00113a00      0xcd1 Kernel/Interfaces/namespace_init.o
                0x001143b0                namespace_init
 *fill*         0x001146d1        0xf 9090
 .text          0x001146e0      0x39a Kernel/Interfaces/namespace_interface.o
                0x00114890                namespace_interface_register
 *fill*         0x00114a7a        0x6 9090
 .text          0x00114a80      0x572 Kernel/Interfaces/storm_module_factory.o
                0x00114fa0                storm_module_factory_interface_init
 *fill*         0x00114ff2        0xe 9090
 .text          0x00115000      0x23a Kernel/Interfaces/storm_module_factory_interface.o
                0x001150c0                storm_module_factory_interface_register
 *fill*         0x0011523a        0x6 9090
 .text          0x00115240      0x4aa Kernel/Interfaces/storm_program_factory.o
                0x00115660                storm_program_factory_interface_init
 *fill*         0x001156ea        0x6 9090
 .text          0x001156f0      0x23a Kernel/Interfaces/storm_program_factory_interface.o
                0x001157b0                storm_program_factory_interface_register
 *fill*         0x0011592a        0x6 9090
 .text          0x00115930      0x14a Kernel/Interfaces/timer_interface.o
                0x00115990                timer_interface_register
 *fill*         0x00115a7a        0x6 9090
 .text          0x00115a80       0x6a Kernel/Interfaces/timer_interface_init.o
                0x00115ad0                timer_interface_init
 *fill*         0x00115aea        0x6 9090
 .text          0x00115af0       0x54 Kernel/Events/debug_consumer_init.o
                0x00115b20                debug_consumer_init
 *fill*         0x00115b44        0xc 9090
 .text          0x00115b50      0x33a Kernel/Events/debug_event_class.o
                0x00115c10                debug_supplier_interface_register
                0x00115b50                debug_description_register
                0x00115d60                debug_consumer_interface_register
 *fill*         0x00115e8a        0x6 9090
 .text          0x00115e90       0x2b Kernel/Events/debug_supplier_init.o
                0x00115e90                debug_supplier_init
 *fill*         0x00115ebb        0x5 9090
 .text          0x00115ec0      0x2ba Kernel/Events/irq_event_class.o
                0x00115ec0                irq_description_register
                0x00116050                irq_consumer_interface_register
                0x00115f30                irq_supplier_interface_register
 *fill*         0x0011617a        0x6 9090
 .text          0x00116180       0x35 Kernel/Events/irq_supplier_init.o
                0x00116180                irq_supplier_init
 *fill*         0x001161b5        0xb 9090
 .text          0x001161c0      0x2c2 Kernel/Classes/flat_namespace_init.o
                0x00116430                flat_namespace_init
 *fill*         0x00116482        0xe 9090
 .text          0x00116490      0x3aa Kernel/Classes/flat_namespace_interface.o
                0x00116650                flat_namespace_interface_register
 *fill*         0x0011683a        0x6 9090
 .text          0x00116840       0x8b Kernel/Classes/flat_namespace_object.o
                0x00116840                flat_namespace_class_init
 *fill*         0x001168cb        0x5 9090
 .text          0x001168d0       0x8b Kernel/Classes/storm_module.o
                0x001168d0                storm_module_class_init
 *fill*         0x0011695b        0x5 9090
 .text          0x00116960      0x10a Kernel/Classes/storm_module_control_init.o
                0x00116a50                storm_module_control_init
 *fill*         0x00116a6a        0x6 9090
 .text          0x00116a70      0x22a Kernel/Classes/storm_module_control_interface.o
                0x00116b60                storm_module_control_interface_register
 *fill*         0x00116c9a        0x6 9090
 .text          0x00116ca0       0x8b Kernel/Classes/storm_program.o
                0x00116ca0                storm_program_class_init
 *fill*         0x00116d2b        0x5 9090
 .text          0x00116d30      0x14a Kernel/Classes/storm_program_control_init.o
                0x00116e60                storm_program_control_init
 *fill*         0x00116e7a        0x6 9090
 .text          0x00116e80      0x17a Kernel/Classes/storm_program_control_interface.o
                0x00116f10                storm_program_control_interface_register
 *fill*         0x00116ffa        0x2 9090
 .text          0x00116ffc      0x429 Hardware/Irq/handlers_lowlevel.o
                0x001170d1                irq4_handler
                0x001171a6                irq7_handler
                0x001172c2                irq11_handler
                0x001173de                irq15_handler
                0x00117350                irq13_handler
                0x00117397                irq14_handler
                0x00117309                irq12_handler
                0x0011708a                irq3_handler
                0x00117043                irq1_handler
                0x0011715f                irq6_handler
                0x0011727b                irq10_handler
                0x00116ffc                irq0_handler
                0x00117234                irq9_handler
                0x001171ed                irq8_handler
                0x00117118                irq5_handler
 *fill*         0x00117425        0x3 9090
 .text          0x00117428      0x47c Hardware/Exception/handlers_lowlevel.o
                0x0011769b                EXCEPTION_HANDLER_SEGMENT_NOT_PRESENT_LOWLEVEL
                0x0011757e                EXCEPTION_HANDLER_INVALID_OPCODE_LOWLEVEL
                0x00117832                EXCEPTION_HANDLER_MACHINE_CHECK_LOWLEVEL
                0x001176d4                EXCEPTION_HANDLER_STACK_FAULT_LOWLEVEL
                0x001177c0                EXCEPTION_HANDLER_FLOATING_POINT_ERROR_LOWLEVEL
                0x00117662                EXCEPTION_HANDLER_INVALID_TSS_LOWLEVEL
                0x001175b7                EXCEPTION_HANDLER_DEVICE_NOT_AVAILABLE_LOWLEVEL
                0x00117787                EXCEPTION_HANDLER_DUMMY_LOWLEVEL
                0x0011786b                EXCEPTION_HANDLER_STREAMING_SIMD_EXTENSIONS_LOWLEVEL
                0x00117428                EXCEPTION_HANDLER_DIVIDE_ERROR_LOWLEVEL
                0x00117545                EXCEPTION_HANDLER_BOUND_RANGE_EXCEEDED_LOWLEVEL
                0x00117629                EXCEPTION_HANDLER_COPROCESSOR_SEGMENT_OVERRUN_LOWLEVEL
                0x0011749a                EXCEPTION_HANDLER_NONMASKABLE_INTERRUPT_LOWLEVEL
                0x0011750c                EXCEPTION_HANDLER_OVERFLOW_LOWLEVEL
                0x00117461                EXCEPTION_HANDLER_DEBUG_LOWLEVEL
                0x0011770d                EXCEPTION_HANDLER_GENERAL_PROTECTION_LOWLEVEL
                0x001177f9                EXCEPTION_HANDLER_ALIGNMENT_CHECK_LOWLEVEL
                0x001175f0                EXCEPTION_HANDLER_DOUBLE_FAULT_LOWLEVEL
                0x001174d3                EXCEPTION_HANDLER_BREAKPOINT_LOWLEVEL
                0x00117746                EXCEPTION_HANDLER_PAGE_FAULT_LOWLEVEL
 .text          0x001178a4        0xe Hardware/TaskState/task_state_lowlevel.o
                0x001178aa                task_state_switch_finish2
                0x001178a4                task_state_switch_finish
 *fill*         0x001178b2        0x2 9090
 .text          0x001178b4       0x1e Hardware/SystemCall/handlers_lowlevel.o
                0x001178b4                system_call_lowlevel
 *fill*         0x001178d2        0x2 9090
 .text          0x001178d4       0x54 Repository/Computer/jump_lowlevel.o
                0x00117901                iret_to_func
                0x001178d4                jump_lowlevel
 *fill*         0x00117928        0x8 9090
 .text          0x00117930      0x400 /root/Chaos/Binaries/DebugGDB/Modules/Static/ata.a(interface.o)
                0x00117a70                ata_main
 .text          0x00117d30      0xa56 /root/Chaos/Binaries/DebugGDB/Modules/Static/ata.a(ata.o)
                0x001181b0                ata_command
                0x00117e20                ata_probe
                0x00117d30                ata_select
 *fill*         0x00118786        0xa 9090
 .text          0x00118790       0x72 /root/Chaos/Binaries/DebugGDB/Modules/Static/ata.a(ata_drive_class.o)
                0x00118790                ata_drive_class_register
 *fill*         0x00118802        0xe 9090
 .text          0x00118810       0x96 /root/Chaos/Binaries/DebugGDB/Modules/Static/ata.a(ata_manager_class.o)
                0x00118810                ata_manager_class_register
 *fill*         0x001188a6        0xa 9090
 .text          0x001188b0      0x25a /root/Chaos/Binaries/DebugGDB/Modules/Static/ata.a(block_interface.o)
                0x001189d0                block_interface_register
 *fill*         0x00118b0a        0x6 9090
 .text          0x00118b10      0x57b /root/Chaos/Binaries/DebugGDB/Modules/Static/ata.a(ata-internal.o)
                0x00118b10                ata_internal_probe
                0x00118e90                ata_internal_command
 *fill*         0x0011908b        0x5 9090
 .text          0x00119090      0x536 /root/Chaos/Binaries/DebugGDB/Modules/Static/partition.a(interface.o)
                0x00119350                partition_block_destroy
                0x00119110                partition_main
                0x00119260                partition_block_create
 *fill*         0x001195c6        0xa 9090
 .text          0x001195d0      0x594 /root/Chaos/Binaries/DebugGDB/Modules/Static/partition.a(partition.o)
                0x001198b0                scan_for_partitions
 *fill*         0x00119b64        0xc 9090
 .text          0x00119b70       0x82 /root/Chaos/Binaries/DebugGDB/Modules/Static/partition.a(partition_class.o)
                0x00119b70                partition_class_register
 *fill*         0x00119bf2        0xe 9090
 .text          0x00119c00       0x96 /root/Chaos/Binaries/DebugGDB/Modules/Static/partition.a(partition_manager_class.o)
                0x00119c00                partition_manager_class_register
 *fill*         0x00119c96        0xa 9090
 .text          0x00119ca0      0x258 /root/Chaos/Binaries/DebugGDB/Modules/Static/vfat.a(interface.o)
                0x00119ca0                vfat_main
 *fill*         0x00119ef8        0x8 9090
 .text          0x00119f00      0x8f4 /root/Chaos/Binaries/DebugGDB/Modules/Static/vfat.a(volume.o)
                0x0011a650                vfat_volume_add_file_data
                0x00119f00                vfat_has_file_system
                0x0011a090                vfat_volume_create_data
                0x0011a660                vfat_volume_get_file_data
                0x0011a670                vfat_volume_remove_file_data
 *fill*         0x0011a7f4        0xc 9090
 .text          0x0011a800     0x1562 /root/Chaos/Binaries/DebugGDB/Modules/Static/vfat.a(directory_read_write.o)
                0x0011a800                vfat_entry_find
                0x0011bac0                vfat_entry_delete
                0x0011aac0                vfat_entry_add
 *fill*         0x0011bd62        0xe 9090
 .text          0x0011bd70      0x332 /root/Chaos/Binaries/DebugGDB/Modules/Static/vfat.a(common.o)
                0x0011c070                vfat_sub_string
                0x0011c030                vfat_get_next_path_element
                0x0011bd70                cluster_to_sector
                0x0011bf10                wstrcmpjoki
                0x0011be60                vfat_8_dot_3_to_volume_label
                0x0011bd90                vfat_8_dot_3_to_wstring
 *fill*         0x0011c0a2        0xe 9090
 .text          0x0011c0b0      0x942 /root/Chaos/Binaries/DebugGDB/Modules/Static/vfat.a(directory_entry.o)
                0x0011c1a0                vfat_directory_entry_get_next
                0x0011c0b0                vfat_directory_entry_get_first_cluster
                0x0011c110                vfat_directory_entry_is_end_marker
                0x0011c130                vfat_directory_entry_is_long_name
                0x0011c170                vfat_directory_entry_get_name
                0x0011c150                vfat_directory_entry_is_volume
                0x0011c0f0                vfat_directory_entry_is_deleted
 *fill*         0x0011c9f2        0xe 9090
 .text          0x0011ca00      0xf32 /root/Chaos/Binaries/DebugGDB/Modules/Static/vfat.a(file.o)
                0x0011d3a0                vfat_file_get_data_for_name
                0x0011cee0                vfat_file_open_root
                0x0011cbc0                vfat_file_release
                0x0011caf0                vfat_file_destroy_data
                0x0011cbd0                vfat_file_read_region
                0x0011d090                vfat_directory_find_file
                0x0011cd90                vfat_file_create_root_data
                0x0011cb50                vfat_file_is_directory
                0x0011cb70                vfat_file_is_root
                0x0011ca00                vfat_file_create_data
                0x0011cf20                vfat_file_create_data_from_directory_entry
                0x0011cbb0                vfat_file_acquire
 *fill*         0x0011d932        0xe 9090
 .text          0x0011d940      0x464 /root/Chaos/Binaries/DebugGDB/Modules/Static/vfat.a(low_fat.o)
                0x0011d9b0                vfat_raw_write_cluster
                0x0011da20                get_next_cluster
                0x0011d940                vfat_raw_read_cluster
                0x0011db50                get_next_sector
 *fill*         0x0011dda4        0xc 9090
 .text          0x0011ddb0      0x764 /root/Chaos/Binaries/DebugGDB/Modules/Static/vfat.a(low_fat12.o)
                0x0011e050                fat12_count_available_clusters
                0x0011ddb0                fat12_get_next_cluster
                0x0011ded0                fat12_find_available_cluster
                0x0011e1b0                fat12_write_cluster
 *fill*         0x0011e514        0xc 9090
 .text          0x0011e520      0x6b4 /root/Chaos/Binaries/DebugGDB/Modules/Static/vfat.a(low_fat16.o)
                0x0011e8f0                fat16_write_cluster
                0x0011e7c0                fat16_count_available_clusters
                0x0011e520                fat16_get_next_cluster
                0x0011e620                fat16_find_available_cluster
 *fill*         0x0011ebd4        0xc 9090
 .text          0x0011ebe0      0x6c4 /root/Chaos/Binaries/DebugGDB/Modules/Static/vfat.a(low_fat32.o)
                0x0011ebe0                fat32_get_next_cluster
                0x0011efc0                fat32_write_cluster
                0x0011ee90                fat32_count_available_clusters
                0x0011ecf0                fat32_find_available_cluster
 *fill*         0x0011f2a4        0xc 9090
 .text          0x0011f2b0      0xd7f /root/Chaos/Binaries/DebugGDB/Modules/Static/vfat.a(read_write.o)
                0x0011f610                vfat_read_cluster
                0x0011f670                vfat_read_file
                0x0011f2b0                next_cluster
                0x0011f4e0                vfat_read_small_cluster
                0x0011fa00                vfat_write_small_cluster
                0x0011fc90                vfat_write_cluster
                0x0011fcf0                vfat_write_file
                0x0011f330                offset_to_cluster
                0x0011f3f0                vfat_read_big_cluster
                0x0011f900                vfat_write_big_cluster
 *fill*         0x0012002f        0x1 9090
 .text          0x00120030      0x1b4 /root/Chaos/Binaries/Libraries/list.a(list.o)
                0x00120080                list_node_insert
                0x00120130                list_node_remove_last
                0x001200f0                list_node_remove
                0x00120030                list_create
                0x00120170                list_get_iterator
                0x00120190                list_get_reverse_iterator
 *fill*         0x001201e4        0xc 9090
 .text          0x001201f0      0x52a /root/Chaos/Binaries/Libraries/pool_of_integers.a(pool_of_integers.o)
                0x001201f0                pool_of_integers_init
                0x00120460                pool_of_integers_allocate
                0x001205d0                pool_of_integers_deallocate
                0x00120370                pool_of_integers_reserve
 *fill*         0x0012071a        0x6 9090
 .text          0x00120720      0x6d4 /root/Chaos/Binaries/Libraries/pool_of_ranges.a(id_pool.o)
                0x00120d90                pool_is_empty
                0x00120c70                pool_init
                0x00120720                pool_allocate
                0x00120d60                pool_is_full
                0x00120d50                pool_get_iterator
                0x00120a50                pool_deallocate
                0x00120810                pool_reserve
 *fill*         0x00120df4        0xc 9090
 .text          0x00120e00      0x4bf /root/Chaos/Binaries/Libraries/avl_tree.a(avl.o)
                0x00120f70                avl_tree_destroy
                0x00121090                avl_tree_search_node
                0x001211b0                avl_tree_get_smallest_node
                0x00121210                avl_tree_get_reverse_iterator
                0x001211d0                avl_tree_get_largest_node
                0x00120f30                avl_tree_create
                0x00120f80                avl_tree_add_node
                0x00121130                avl_tree_search_nearest_node
                0x001211f0                avl_tree_get_iterator
                0x00120e00                avl_tree_delete_node
                0x00121000                avl_tree_update_node
 *fill*         0x001212bf        0x1 9090
 .text          0x001212c0      0x8b2 /root/Chaos/Binaries/Libraries/avl_tree.a(avl_util.o)
                0x00121b40                get_most_left_node
                0x00121b20                get_right_level
                0x00121b60                get_most_right_node
                0x00121b00                get_left_level
                0x001212c0                exchange
                0x00121910                update
                0x00121ad0                get_pointer_from_parent
                0x001219d0                update2
 *fill*         0x00121b72        0xe 9090
 .text          0x00121b80      0x1f4 /root/Chaos/Binaries/Libraries/string.a(character.o)
                0x00121d00                char_is_upper
                0x00121ca0                char_is_digit
                0x00121cc0                char_is_lower
                0x00121d20                char_is_heximal_digit
                0x00121ba0                char_to_lower_case
                0x00121c00                int_to_char
                0x00121bc0                char_to_int
                0x00121ce0                char_is_space
                0x00121c90                char_is_control
                0x00121d50                char_is_number
                0x00121c70                char_is_alpha
                0x00121b80                char_to_upper_case
                0x00121c30                char_is_alpha_or_number
 *fill*         0x00121d74        0xc 9090
 .text          0x00121d80      0xb63 /root/Chaos/Binaries/Libraries/string.a(format.o)
                0x00121d80                string_print
                0x00122500                string_scan_va
                0x00121da0                string_print_va
                0x001224e0                string_scan
 *fill*         0x001228e3        0xd 9090
 .text          0x001228f0      0x3cb /root/Chaos/Binaries/Libraries/string.a(general-inlines.o)
                0x00122a30                string_sep
                0x00122b40                string_scn
                0x00122940                string_tok
                0x00122b90                string_i_compare_max
                0x001228f0                string_pbrk
                0x00122b00                string_spn
 *fill*         0x00122cbb        0x5 9090
 .text          0x00122cc0      0xc4f /root/Chaos/Binaries/Libraries/string.a(wformat.o)
                0x00122cc0                wstring_print
                0x00123460                wstring_scan
                0x00123480                wstring_scan_va
                0x00122ce0                wstring_print_va
 *fill*         0x0012390f        0x1 9090
 .text          0x00123910      0x606 /root/Chaos/Binaries/Libraries/string.a(wstring-inlines.o)
                0x00123a70                wstring_compare
                0x00123910                wstring_scn
                0x00123d60                wstring_find_substring
                0x00123b60                wstring_length
                0x00123bc0                wstring_compare_template
                0x00123aa0                wstring_compare_max
                0x00123950                wstring_copy
                0x00123980                wstring_copy_max
                0x00123b80                wstring_length_max
                0x00123cb0                wstring_find_last_char
                0x001239e0                wstring_append
                0x00123a20                wstring_append_max
                0x00123c80                wstring_find_first_char
 *fill*         0x00123f16        0xa 9090
 .text          0x00123f20      0xa0e /root/Chaos/Binaries/Libraries/string.a(conversions.o)
                0x00124850                string_to_uint32
                0x00124170                string_to_int32_with_base_autodetect
                0x00124760                string_to_int32
                0x00123f20                string_to_double
                0x00124330                uint32_to_string
 *fill*         0x0012492e        0x2 9090
 .text          0x00124930      0xab0 /root/Chaos/Binaries/Libraries/string.a(wconversions.o)
                0x00124930                wstring_to_double
                0x00124ba0                wstring_to_int32_with_base_autodetect
                0x00124d20                uint32_to_wstring
                0x001251f0                wstring_to_int32
                0x001252f0                wstring_to_uint32
 .text          0x001253e0      0x3ae /root/Chaos/Binaries/Libraries/hash_table.a(hash_table.o)
                0x001254e0                hash_table_add_element
                0x001253e0                hash_table_create
                0x00125490                hash_table_search_element
                0x001255a0                hash_table_get_iterator
                0x00125520                hash_table_delete_element
                0x00125650                string_to_hash
                0x00125430                hash_table_destroy
 *(.text.*)
 *(.stub)
 *(.gnu.warning)
 *(.gnu.linkonce.t.*)

.fini
 *(.fini)
                0x0012578e                PROVIDE (__etext, .)
                0x0012578e                PROVIDE (_etext, .)
                0x0012578e                PROVIDE (etext, .)

.rodata         0x001257a0     0x5f14
 *(.rodata)
 .rodata        0x001257a0       0x39 ./init.o
 *fill*         0x001257d9        0x7 00
 .rodata        0x001257e0       0x84 Hardware/SystemDebug/debug.o
 *fill*         0x00125864        0xc 00
 .rodata        0x00125870      0x154 Hardware/SystemDebug/gdb.o
 *fill*         0x001259c4        0xc 00
 .rodata        0x001259d0       0xf8 Hardware/Cpu/identification.o
 *fill*         0x00125ac8       0x18 00
 .rodata        0x00125ae0      0x522 Hardware/Exception/handlers.o
 *fill*         0x00126002       0x1e 00
 .rodata        0x00126020      0x3e9 Hardware/Exception/init.o
 *fill*         0x00126409       0x17 00
 .rodata        0x00126420       0x54 Hardware/Clock/time.o
 *fill*         0x00126474        0xc 00
 .rodata        0x00126480       0xc0 Hardware/Dma/controller.o
 .rodata        0x00126540       0x62 Hardware/PhysicalMemory/allocate.o
 *fill*         0x001265a2       0x1e 00
 .rodata        0x001265c0      0x116 Hardware/PhysicalMemory/init.o
 .rodata        0x001266d6       0x89 Hardware/VirtualMemory/allocate.o
 *fill*         0x0012675f        0x1 00
 .rodata        0x00126760       0x9a Hardware/VirtualMemory/create.o
 *fill*         0x001267fa        0x6 00
 .rodata        0x00126800       0x92 Hardware/VirtualMemory/init.o
 *fill*         0x00126892        0xe 00
 .rodata        0x001268a0      0x11b Hardware/VirtualMemory/page.o
 .rodata        0x001269bb       0x6e Hardware/VirtualMemory/reserve.o
 *fill*         0x00126a29       0x17 00
 .rodata        0x00126a40      0x143 Hardware/Elf/elf.o
 *fill*         0x00126b83       0x1d 00
 .rodata        0x00126ba0       0x87 Hardware/SystemCall/system_call.o
 .rodata        0x00126c27       0x36 Repository/Method/static.o
 .rodata        0x00126c5d       0x2c Repository/Interface/static.o
 .rodata        0x00126c89       0x2c Repository/EventSupplierInterface/static.o
 .rodata        0x00126cb5       0x2c Repository/EventConsumerInterface/static.o
 .rodata        0x00126ce1       0x56 Repository/Class/static.o
 .rodata        0x00126d37       0x36 Repository/Security/internal.o
 *fill*         0x00126d6d       0x13 00
 .rodata        0x00126d80       0x20 Repository/Memory/slab.o
                0x00126d80                slab_block_size
 .rodata        0x00126da0      0x2b8 Repository/Computer/internal.o
 *fill*         0x00127058        0x8 00
 .rodata        0x00127060       0x6a Repository/Computer/system.o
 .rodata        0x001270ca       0x93 Repository/Object/static.o
 .rodata        0x0012715d       0x36 Repository/Handle/static.o
 *fill*         0x00127193        0xd 00
 .rodata        0x001271a0      0x254 Kernel/./init.o
 *fill*         0x001273f4        0xc 00
 .rodata        0x00127400       0xb8 Kernel/Interfaces/flat_namespace_object_factory_interface.o
 *fill*         0x001274b8        0x8 00
 .rodata        0x001274c0      0x6b0 Kernel/Interfaces/init_init.o
 *fill*         0x00127b70       0x10 00
 .rodata        0x00127b80       0x7c Kernel/Interfaces/init_interface.o
 *fill*         0x00127bfc        0x4 00
 .rodata        0x00127c00       0x94 Kernel/Interfaces/irq_supplier_factory_interface.o
 *fill*         0x00127c94        0xc 00
 .rodata        0x00127ca0      0x183 Kernel/Interfaces/namespace_init.o
 *fill*         0x00127e23       0x1d 00
 .rodata        0x00127e40       0xa8 Kernel/Interfaces/namespace_interface.o
 *fill*         0x00127ee8       0x18 00
 .rodata        0x00127f00      0x532 Kernel/Interfaces/storm_module_factory.o
 *fill*         0x00128432        0xe 00
 .rodata        0x00128440       0x94 Kernel/Interfaces/storm_module_factory_interface.o
 *fill*         0x001284d4        0xc 00
 .rodata        0x001284e0      0x10d Kernel/Interfaces/storm_program_factory.o
 *fill*         0x001285ed       0x13 00
 .rodata        0x00128600       0x98 Kernel/Interfaces/storm_program_factory_interface.o
 *fill*         0x00128698        0x8 00
 .rodata        0x001286a0       0x44 Kernel/Interfaces/timer_interface.o
 *fill*         0x001286e4       0x1c 00
 .rodata        0x00128700       0xdc Kernel/Events/debug_event_class.o
 *fill*         0x001287dc        0x4 00
 .rodata        0x001287e0       0xd4 Kernel/Events/irq_event_class.o
 *fill*         0x001288b4        0xc 00
 .rodata        0x001288c0       0xec Kernel/Classes/flat_namespace_init.o
 *fill*         0x001289ac       0x14 00
 .rodata        0x001289c0      0x13c Kernel/Classes/flat_namespace_interface.o
 *fill*         0x00128afc        0x4 00
 .rodata        0x00128b00       0x38 Kernel/Classes/flat_namespace_object.o
 *fill*         0x00128b38        0x8 00
 .rodata        0x00128b40       0x34 Kernel/Classes/storm_module.o
 .rodata        0x00128b74       0x44 Kernel/Classes/storm_module_control_init.o
 *fill*         0x00128bb8        0x8 00
 .rodata        0x00128bc0       0x94 Kernel/Classes/storm_module_control_interface.o
 *fill*         0x00128c54        0xc 00
 .rodata        0x00128c60       0x38 Kernel/Classes/storm_program.o
 .rodata        0x00128c98       0x38 Kernel/Classes/storm_program_control_init.o
 *fill*         0x00128cd0       0x10 00
 .rodata        0x00128ce0       0x78 Kernel/Classes/storm_program_control_interface.o
 *fill*         0x00128d58        0x8 00
 .rodata        0x00128d60       0xec /root/Chaos/Binaries/DebugGDB/Modules/Static/ata.a(interface.o)
 *fill*         0x00128e4c       0x14 00
 .rodata        0x00128e60       0x4c /root/Chaos/Binaries/DebugGDB/Modules/Static/ata.a(ata.o)
 *fill*         0x00128eac       0x14 00
 .rodata        0x00128ec0       0x28 /root/Chaos/Binaries/DebugGDB/Modules/Static/ata.a(ata_drive_class.o)
 *fill*         0x00128ee8       0x18 00
 .rodata        0x00128f00       0x30 /root/Chaos/Binaries/DebugGDB/Modules/Static/ata.a(ata_manager_class.o)
 .rodata        0x00128f30       0x44 /root/Chaos/Binaries/DebugGDB/Modules/Static/ata.a(block_interface.o)
 *fill*         0x00128f74        0xc 00
 .rodata        0x00128f80       0x3c /root/Chaos/Binaries/DebugGDB/Modules/Static/partition.a(interface.o)
 *fill*         0x00128fbc        0x4 00
 .rodata        0x00128fc0      0x7f0 /root/Chaos/Binaries/DebugGDB/Modules/Static/partition.a(partition.o)
 *fill*         0x001297b0       0x10 00
 .rodata        0x001297c0       0x28 /root/Chaos/Binaries/DebugGDB/Modules/Static/partition.a(partition_class.o)
 *fill*         0x001297e8       0x18 00
 .rodata        0x00129800       0x44 /root/Chaos/Binaries/DebugGDB/Modules/Static/partition.a(partition_manager_class.o)
 *fill*         0x00129844       0x1c 00
 .rodata        0x00129860      0x280 /root/Chaos/Binaries/DebugGDB/Modules/Static/vfat.a(interface.o)
 .rodata        0x00129ae0      0x2f4 /root/Chaos/Binaries/DebugGDB/Modules/Static/vfat.a(volume.o)
 *fill*         0x00129dd4        0xc 00
 .rodata        0x00129de0      0x3ec /root/Chaos/Binaries/DebugGDB/Modules/Static/vfat.a(directory_read_write.o)
 *fill*         0x0012a1cc       0x14 00
 .rodata        0x0012a1e0      0x2e4 /root/Chaos/Binaries/DebugGDB/Modules/Static/vfat.a(directory_entry.o)
 *fill*         0x0012a4c4       0x1c 00
 .rodata        0x0012a4e0      0x830 /root/Chaos/Binaries/DebugGDB/Modules/Static/vfat.a(file.o)
 .rodata        0x0012ad10       0x11 /root/Chaos/Binaries/Libraries/string.a(character.o)
 *fill*         0x0012ad21        0xf 00
 .rodata        0x0012ad30      0x34c /root/Chaos/Binaries/Libraries/string.a(format.o)
 *fill*         0x0012b07c        0x4 00
 .rodata        0x0012b080      0x43c /root/Chaos/Binaries/Libraries/string.a(wformat.o)
 *fill*         0x0012b4bc        0x4 00
 .rodata        0x0012b4c0       0x85 /root/Chaos/Binaries/Libraries/string.a(conversions.o)
 *fill*         0x0012b545       0x1b 00
 .rodata        0x0012b560      0x154 /root/Chaos/Binaries/Libraries/string.a(wconversions.o)
 *(.rodata.*)
 *(.gnu.linkonce.r.*)

.rodata1
 *(.rodata1)

.sdata2
 *(.sdata2)
 *(.sdata2.*)
 *(.gnu.linkonce.s2.*)

.sbss2
 *(.sbss2)
 *(.sbss2.*)
 *(.gnu.linkonce.sb2.*)
                0x0012c6b4                . = (ALIGN (0x1000) + (. & 0xfff))

.data           0x0012d000     0xbce0
 *(.data)
 .data          0x0012d000     0x872c ./init.o
                0x00135715                parse_parameters
                0x0012d000                storm_info
                0x0013570a                parse_disable
                0x00135700                parse_enable
                0x00133ea0                subsystem_built_in
 *fill*         0x0013572c       0x14 00
 .data          0x00135740       0x34 Hardware/Boot/init.o
 .data          0x00135774       0x19 Hardware/SystemDebug/debug.o
 *fill*         0x0013578d        0x3 00
 .data          0x00135790       0x24 Hardware/SystemDebug/gdb.o
                0x001357a4                remote_debug
                0x00135790                i386at_serial_basetable
                0x001357a0                i386at_serial_iobase
 *fill*         0x001357b4        0xc 00
 .data          0x001357c0      0x284 Hardware/Cpu/identification.o
                0x00135960                cpu_sub_records
 .data          0x00135a44        0x4 Hardware/Cpu/speed.o
 *fill*         0x00135a48       0x18 00
 .data          0x00135a60       0xc4 Hardware/Irq/irq.o
                0x00135b20                irq_tmp_post_handler
                0x00135a60                irq_handlers
                0x00135aa0                irq_handlers_data
                0x00135ae0                irq_post_handlers
 *fill*         0x00135b24       0x1c 00
 .data          0x00135b40      0x190 Hardware/Exception/handlers.o
                0x00135b40                exception_hardware_descriptions
 .data          0x00135cd0        0x4 Hardware/Exception/init.o
 .data          0x00135cd4       0x30 Hardware/Clock/time.o
 .data          0x00135d04       0x1c Hardware/Timer/timer.o
 .data          0x00135d20       0x5c Hardware/PhysicalMemory/init.o
                0x00135d20                physical_memory_global
 *fill*         0x00135d7c        0x4 00
 .data          0x00135d80       0x2e Hardware/VirtualMemory/init.o
                0x00135d80                virtual_memory_global
 *fill*         0x00135dae        0x2 00
 *fill*         0x00135db0      0x250 00
 .data          0x00136000     0x1000 Hardware/VirtualMemory/page.o
                0x00136000                page_directory_global
 .data          0x00137000       0x6c Hardware/TaskState/task_state.o
                0x00137000                task_state_kernel
 .data          0x0013706c        0xc Hardware/TaskState/tss.o
                0x00137070                jump_data
 *fill*         0x00137078        0x8 00
 .data          0x00137080       0x2c Repository/Reference/system.o
                0x00137080                magic_number_table
 *fill*         0x001370ac       0x14 00
 .data          0x001370c0       0x60 Repository/Security/internal.o
                0x001370c0                security_absolute
 .data          0x00137120       0x30 Repository/Cpu/init.o
                0x00137120                global_cpu
 *fill*         0x00137150       0x10 00
 .data          0x00137160       0x28 Repository/Memory/system.o
                0x00137160                memory_global
 *fill*         0x00137188       0x18 00
 .data          0x001371a0     0x1194 Repository/Computer/system.o
                0x001371a0                computer_kernel
                0x00138330                computer_current
 *fill*         0x00138334        0xc 00
 .data          0x00138340       0xac Kernel/./init.o
                0x00138340                kernel_interfaces_info
                0x001383d8                kernel_event_consumer_interfaces_info
                0x001383b8                kernel_event_supplier_interfaces_info
 .data          0x001383ec        0x8 Kernel/Interfaces/flat_namespace_object_factory.o
 .data          0x001383f4        0x8 Kernel/Interfaces/flat_namespace_object_factory_interface.o
 *fill*         0x001383fc        0x4 00
 .data          0x00138400       0x90 Kernel/Interfaces/init_init.o
                0x00138460                static_modules_info
                0x00138430                kernel_object_root_flat_namespace
                0x00138440                kernel_debug_queue
                0x00138434                kernel_handle_root_flat_namespace
                0x00138438                kernel_handle_namespace
                0x00138448                kernel_consumer_debug
                0x00138400                kernel_classes_info
                0x0013843c                kernel_handle_timer
                0x00138444                kernel_supplier_debug
 .data          0x00138490        0x8 Kernel/Interfaces/init_interface.o
 .data          0x00138498        0x8 Kernel/Interfaces/irq_supplier_factory_init.o
 .data          0x001384a0        0x8 Kernel/Interfaces/irq_supplier_factory_interface.o
 .data          0x001384a8       0x14 Kernel/Interfaces/namespace_init.o
                0x001384a8                char_illegals
 .data          0x001384bc        0x8 Kernel/Interfaces/namespace_interface.o
 *fill*         0x001384c4       0x1c 00
 .data          0x001384e0      0x170 Kernel/Interfaces/storm_module_factory.o
                0x001384e0                functions_table
 .data          0x00138650        0x8 Kernel/Interfaces/storm_module_factory_interface.o
 .data          0x00138658        0xc Kernel/Interfaces/storm_program_factory.o
 .data          0x00138664        0x8 Kernel/Interfaces/storm_program_factory_interface.o
 .data          0x0013866c        0x8 Kernel/Interfaces/timer_interface.o
 .data          0x00138674        0x4 Kernel/Interfaces/timer_interface_init.o
 .data          0x00138678        0x4 Kernel/Events/debug_event_class.o
 .data          0x0013867c        0x4 Kernel/Events/irq_event_class.o
 .data          0x00138680       0x10 Kernel/Classes/flat_namespace_init.o
 .data          0x00138690        0x8 Kernel/Classes/flat_namespace_interface.o
 .data          0x00138698        0x8 Kernel/Classes/storm_module_control_init.o
 .data          0x001386a0        0x8 Kernel/Classes/storm_module_control_interface.o
 .data          0x001386a8        0x4 Kernel/Classes/storm_program_control_init.o
 .data          0x001386ac        0x8 Kernel/Classes/storm_program_control_interface.o
 .data          0x001386b4        0xc /root/Chaos/Binaries/DebugGDB/Modules/Static/ata.a(interface.o)
                0x001386bc                ata_debug_supplier
 .data          0x001386c0        0x8 /root/Chaos/Binaries/DebugGDB/Modules/Static/ata.a(block_interface.o)
 *fill*         0x001386c8       0x18 00
 .data          0x001386e0      0x424 /root/Chaos/Binaries/DebugGDB/Modules/Static/partition.a(interface.o)
                0x00138b00                partition_debug_supplier
 *fill*         0x00138b04       0x1c 00
 .data          0x00138b20      0x1b6 /root/Chaos/Binaries/DebugGDB/Modules/Static/partition.a(partition.o)
                0x00138b20                partition_record
 *fill*         0x00138cd6        0x2 00
 .data          0x00138cd8        0x4 /root/Chaos/Binaries/DebugGDB/Modules/Static/vfat.a(directory_read_write.o)
 .data          0x00138cdc        0x4 /root/Chaos/Binaries/Libraries/string.a(character.o)
 *(.data.*)
 *(.gnu.linkonce.d.*)

.data1
 *(.data1)

.eh_frame
 *(.eh_frame)

.gcc_except_table
 *(.gcc_except_table)

.ctors
 *crtbegin.o(.ctors)
 *(EXCLUDE_FILE(*crtend.o) .ctors)
 *(SORT(.ctors.*))
 *(.ctors)

.dtors
 *crtbegin.o(.dtors)
 *(EXCLUDE_FILE(*crtend.o) .dtors)
 *(SORT(.dtors.*))
 *(.dtors)

.got
 *(.got.plt)
 *(.got)

.dynamic
 *(.dynamic)

.sdata
 *(.sdata)
 *(.sdata.*)
 *(.gnu.linkonce.s.*)
                0x00138ce0                _edata = .
                0x00138ce0                PROVIDE (edata, .)
                0x00138ce0                __bss_start = .

.sbss           0x00138ce0        0x0
                0x00138ce0                PROVIDE (__sbss_start, .)
                0x00138ce0                PROVIDE (___sbss_start, .)
 *(.dynsbss)
 *(.sbss)
 *(.sbss.*)
 *(.gnu.linkonce.sb.*)
 *(.scommon)
                0x00138ce0                PROVIDE (__sbss_end, .)
                0x00138ce0                PROVIDE (___sbss_end, .)

.bss            0x00138ce0    0x1a9e0
 *(.dynbss)
 *(.bss)
 .bss           0x00138ce0      0x404 Hardware/Boot/init.o
 *fill*         0x001390e4       0x1c 00
 .bss           0x00139100      0x350 Hardware/SystemDebug/gdb.o
 .bss           0x00139450        0x8 Hardware/Clock/time.o
 .bss           0x00139458       0x58 Kernel/./init.o
 .bss           0x001394b0       0x18 Kernel/Interfaces/flat_namespace_object_factory_interface.o
 .bss           0x001394c8       0x1c Kernel/Interfaces/init_interface.o
 .bss           0x001394e4       0x14 Kernel/Interfaces/irq_supplier_factory_interface.o
 .bss           0x001394f8       0x24 Kernel/Interfaces/namespace_interface.o
 .bss           0x0013951c       0x18 Kernel/Interfaces/storm_module_factory_interface.o
 .bss           0x00139534       0x18 Kernel/Interfaces/storm_program_factory_interface.o
 .bss           0x0013954c        0xc Kernel/Interfaces/timer_interface.o
 .bss           0x00139558       0x24 Kernel/Classes/flat_namespace_interface.o
 .bss           0x0013957c        0x4 Kernel/Classes/flat_namespace_object.o
 .bss           0x00139580        0x4 Kernel/Classes/storm_module.o
 .bss           0x00139584       0x14 Kernel/Classes/storm_module_control_interface.o
 .bss           0x00139598        0x4 Kernel/Classes/storm_program.o
 .bss           0x0013959c        0xc Kernel/Classes/storm_program_control_interface.o
 .bss           0x001395a8        0x8 /root/Chaos/Binaries/DebugGDB/Modules/Static/ata.a(interface.o)
 *fill*         0x001395b0       0x10 00
 .bss           0x001395c0       0x80 /root/Chaos/Binaries/DebugGDB/Modules/Static/ata.a(ata.o)
 .bss           0x00139640       0x14 /root/Chaos/Binaries/DebugGDB/Modules/Static/ata.a(block_interface.o)
 .bss           0x00139654        0x8 /root/Chaos/Binaries/DebugGDB/Modules/Static/partition.a(interface.o)
 *fill*         0x0013965c        0x4 00
 .bss           0x00139660      0x200 /root/Chaos/Binaries/DebugGDB/Modules/Static/partition.a(partition.o)
 .bss           0x00139860        0x4 /root/Chaos/Binaries/DebugGDB/Modules/Static/partition.a(partition_class.o)
 *fill*         0x00139864       0x1c 00
 .bss           0x00139880      0x264 /root/Chaos/Binaries/DebugGDB/Modules/Static/vfat.a(interface.o)
 *(.bss.*)
 *(.gnu.linkonce.b.*)
 *(COMMON)
 *fill*         0x00139ae4       0x1c 00
 COMMON         0x00139b00    0x10000 Hardware/Boot/init.o
                                  0x0 (size before relaxing)
                0x00139b00                kernel_stack
 COMMON         0x00149b00       0x34 Hardware/Boot/multiboot.o
                                  0x0 (size before relaxing)
                0x00149b00                multiboot_info
 *fill*         0x00149b34        0xc 00
 COMMON         0x00149b40     0x2754 Hardware/SystemDebug/gdb.o
                                  0x0 (size before relaxing)
                0x00149b40                registers
                0x00149b80                remcomStack
                0x0014c290                gdb_i386errcode
 *fill*         0x0014c294        0xc 00
 COMMON         0x0014c2a0      0x105 Hardware/Cpu/init.o
                                  0x0 (size before relaxing)
                0x0014c2a0                cpu_info_global
 *fill*         0x0014c3a5       0x1b 00
 COMMON         0x0014c3c0       0xb0 Hardware/Exception/init.o
                                  0x0 (size before relaxing)
                0x0014c3c0                exception_handlers_data
                0x0014c420                exception_handlers
 *fill*         0x0014c470       0x10 00
 COMMON         0x0014c480       0x54 Hardware/Dma/dma.o
                                  0x0 (size before relaxing)
                0x0014c480                dma_channels
 COMMON         0x0014c4d4        0x9 Hardware/Timer/pit.o
                                  0x0 (size before relaxing)
                0x0014c4d4                pit_divisor
                0x0014c4da                pit_mode
 *fill*         0x0014c4dd        0x3 00
 COMMON         0x0014c4e0     0x7160 Hardware/PhysicalMemory/internal.o
                                  0x0 (size before relaxing)
                0x0014c4e0                node_allocator_global
                0x0014c8e0                node_pool_global
 COMMON         0x00153640       0x30 Repository/Cpu/system.o
                                  0x0 (size before relaxing)
                0x00153640                cpu_kernel
 COMMON         0x00153670       0x1c Repository/Computer/internal.o
                                  0x0 (size before relaxing)
                0x00153670                computers
 COMMON         0x0015368c        0x8 Kernel/./init.o
                                  0x0 (size before relaxing)
                0x0015368c                kernel_class
                0x00153690                kernel_object
 COMMON         0x00153694        0x4 Kernel/Interfaces/init_init.o
                                  0x0 (size before relaxing)
                0x00153694                storm_module_objects
 COMMON         0x00153698        0x4 Kernel/Events/debug_supplier_init.o
                                  0x0 (size before relaxing)
                0x00153698                debug_event_class
 COMMON         0x0015369c       0x1c /root/Chaos/Binaries/DebugGDB/Modules/Static/ata.a(interface.o)
                                  0x0 (size before relaxing)
                0x0015369c                irq14_supplier
                0x001536a0                irq14_queue
                0x001536a4                irq14_consumer
                0x001536a8                irq15_consumer
                0x001536ac                irq15_queue
                0x001536b0                ata_drive_class
                0x001536b4                irq15_supplier
 COMMON         0x001536b8        0x4 /root/Chaos/Binaries/DebugGDB/Modules/Static/partition.a(interface.o)
                                  0x0 (size before relaxing)
                0x001536b8                partition_class
 COMMON         0x001536bc        0x4 /root/Chaos/Binaries/Libraries/string.a(general-inlines.o)
                                  0x0 (size before relaxing)
                0x001536bc                ___strtok
                0x001536c0                . = ALIGN (0x4)
                0x001536c0                . = ALIGN (0x4)
                0x001536c0                _end = .
                0x001536c0                PROVIDE (end, .)

.stab
 *(.stab)

.stabstr
 *(.stabstr)

.stab.excl
 *(.stab.excl)

.stab.exclstr
 *(.stab.exclstr)

.stab.index
 *(.stab.index)

.stab.indexstr
 *(.stab.indexstr)

.comment        0x00000000      0xc4e
 *(.comment)
 .comment       0x00000000       0x12 ./init.o
 .comment       0x00000012       0x12 Hardware/Boot/init.o
 .comment       0x00000024       0x12 Hardware/Boot/multiboot.o
 .comment       0x00000036       0x12 Hardware/Boot/parse.o
 .comment       0x00000048       0x12 Hardware/SystemDebug/debug.o
 .comment       0x0000005a       0x12 Hardware/SystemDebug/gdb.o
 .comment       0x0000006c       0x12 Hardware/Cpu/bugs.o
 .comment       0x0000007e       0x12 Hardware/Cpu/halt.o
 .comment       0x00000090       0x12 Hardware/Cpu/identification.o
 .comment       0x000000a2       0x12 Hardware/Cpu/init.o
 .comment       0x000000b4       0x12 Hardware/Cpu/lock.o
 .comment       0x000000c6       0x12 Hardware/Cpu/speed.o
 .comment       0x000000d8       0x12 Hardware/Irq/irq.o
 .comment       0x000000ea       0x12 Hardware/Irq/pic.o
 .comment       0x000000fc       0x12 Hardware/Exception/handlers.o
 .comment       0x0000010e       0x12 Hardware/Exception/init.o
 .comment       0x00000120       0x12 Hardware/Clock/time.o
 .comment       0x00000132       0x12 Hardware/Dma/controller.o
 .comment       0x00000144       0x12 Hardware/Dma/dma.o
 .comment       0x00000156       0x12 Hardware/Timer/pit.o
 .comment       0x00000168       0x12 Hardware/Timer/timer.o
 .comment       0x0000017a       0x12 Hardware/PhysicalMemory/allocate.o
 .comment       0x0000018c       0x12 Hardware/PhysicalMemory/check.o
 .comment       0x0000019e       0x12 Hardware/PhysicalMemory/deallocate.o
 .comment       0x000001b0       0x12 Hardware/PhysicalMemory/init.o
 .comment       0x000001c2       0x12 Hardware/PhysicalMemory/internal.o
 .comment       0x000001d4       0x12 Hardware/PhysicalMemory/reallocate.o
 .comment       0x000001e6       0x12 Hardware/PhysicalMemory/reserve.o
 .comment       0x000001f8       0x12 Hardware/VirtualMemory/allocate.o
 .comment       0x0000020a       0x12 Hardware/VirtualMemory/create.o
 .comment       0x0000021c       0x12 Hardware/VirtualMemory/deallocate.o
 .comment       0x0000022e       0x12 Hardware/VirtualMemory/destroy.o
 .comment       0x00000240       0x12 Hardware/VirtualMemory/init.o
 .comment       0x00000252       0x12 Hardware/VirtualMemory/internal.o
 .comment       0x00000264       0x12 Hardware/VirtualMemory/page.o
 .comment       0x00000276       0x12 Hardware/VirtualMemory/reserve.o
 .comment       0x00000288       0x12 Hardware/TaskState/task_state.o
 .comment       0x0000029a       0x12 Hardware/TaskState/tss.o
 .comment       0x000002ac       0x12 Hardware/IoPort/port.o
 .comment       0x000002be       0x12 Hardware/Elf/elf.o
 .comment       0x000002d0       0x12 Hardware/SystemCall/system_call.o
 .comment       0x000002e2       0x12 Repository/./repository.o
 .comment       0x000002f4       0x12 Repository/Reference/system.o
 .comment       0x00000306       0x12 Repository/Descriptions/Method/system.o
 .comment       0x00000318       0x12 Repository/Descriptions/Interface/system.o
 .comment       0x0000032a       0x12 Repository/Descriptions/Class/system.o
 .comment       0x0000033c       0x12 Repository/Descriptions/Event/system.o
 .comment       0x0000034e       0x12 Repository/Method/init.o
 .comment       0x00000360       0x12 Repository/Method/internal.o
 .comment       0x00000372       0x12 Repository/Method/parameters_check.o
 .comment       0x00000384       0x12 Repository/Method/security_check.o
 .comment       0x00000396       0x12 Repository/Method/static.o
 .comment       0x000003a8       0x12 Repository/Method/system.o
 .comment       0x000003ba       0x12 Repository/Method/transaction.o
 .comment       0x000003cc       0x12 Repository/Interface/init.o
 .comment       0x000003de       0x12 Repository/Interface/internal.o
 .comment       0x000003f0       0x12 Repository/Interface/parameters_check.o
 .comment       0x00000402       0x12 Repository/Interface/security_check.o
 .comment       0x00000414       0x12 Repository/Interface/static.o
 .comment       0x00000426       0x12 Repository/Interface/system.o
 .comment       0x00000438       0x12 Repository/Interface/transaction.o
 .comment       0x0000044a       0x12 Repository/EventSupplierInterface/init.o
 .comment       0x0000045c       0x12 Repository/EventSupplierInterface/internal.o
 .comment       0x0000046e       0x12 Repository/EventSupplierInterface/parameters_check.o
 .comment       0x00000480       0x12 Repository/EventSupplierInterface/security_check.o
 .comment       0x00000492       0x12 Repository/EventSupplierInterface/static.o
 .comment       0x000004a4       0x12 Repository/EventSupplierInterface/system.o
 .comment       0x000004b6       0x12 Repository/EventSupplierInterface/transaction.o
 .comment       0x000004c8       0x12 Repository/EventSupplier/system.o
 .comment       0x000004da       0x12 Repository/EventConsumerInterface/init.o
 .comment       0x000004ec       0x12 Repository/EventConsumerInterface/internal.o
 .comment       0x000004fe       0x12 Repository/EventConsumerInterface/parameters_check.o
 .comment       0x00000510       0x12 Repository/EventConsumerInterface/security_check.o
 .comment       0x00000522       0x12 Repository/EventConsumerInterface/static.o
 .comment       0x00000534       0x12 Repository/EventConsumerInterface/system.o
 .comment       0x00000546       0x12 Repository/EventConsumerInterface/transaction.o
 .comment       0x00000558       0x12 Repository/Class/init.o
 .comment       0x0000056a       0x12 Repository/Class/internal.o
 .comment       0x0000057c       0x12 Repository/Class/parameters_check.o
 .comment       0x0000058e       0x12 Repository/Class/security_check.o
 .comment       0x000005a0       0x12 Repository/Class/static.o
 .comment       0x000005b2       0x12 Repository/Class/system.o
 .comment       0x000005c4       0x12 Repository/Class/transaction.o
 .comment       0x000005d6       0x12 Repository/Security/internal.o
 .comment       0x000005e8       0x12 Repository/Security/parameters_check.o
 .comment       0x000005fa       0x12 Repository/Security/security_check.o
 .comment       0x0000060c       0x12 Repository/Security/static.o
 .comment       0x0000061e       0x12 Repository/Security/system.o
 .comment       0x00000630       0x12 Repository/Cpu/init.o
 .comment       0x00000642       0x12 Repository/Cpu/internal.o
 .comment       0x00000654       0x12 Repository/Cpu/system.o
 .comment       0x00000666       0x12 Repository/Memory/memory.o
 .comment       0x00000678       0x12 Repository/Memory/slab.o
 .comment       0x0000068a       0x12 Repository/Memory/system.o
 .comment       0x0000069c       0x12 Repository/Computer/internal.o
 .comment       0x000006ae       0x12 Repository/Computer/scheduler.o
 .comment       0x000006c0       0x12 Repository/Computer/system.o
 .comment       0x000006d2       0x12 Repository/Object/init.o
 .comment       0x000006e4       0x12 Repository/Object/internal.o
 .comment       0x000006f6       0x12 Repository/Object/parameters_check.o
 .comment       0x00000708       0x12 Repository/Object/security_check.o
 .comment       0x0000071a       0x12 Repository/Object/static.o
 .comment       0x0000072c       0x12 Repository/Object/system.o
 .comment       0x0000073e       0x12 Repository/Object/transaction.o
 .comment       0x00000750       0x12 Repository/Handle/init.o
 .comment       0x00000762       0x12 Repository/Handle/internal.o
 .comment       0x00000774       0x12 Repository/Handle/parameters_check.o
 .comment       0x00000786       0x12 Repository/Handle/security_check.o
 .comment       0x00000798       0x12 Repository/Handle/static.o
 .comment       0x000007aa       0x12 Repository/Handle/system.o
 .comment       0x000007bc       0x12 Repository/EventQueue/system.o
 .comment       0x000007ce       0x12 Repository/Quality/system.o
 .comment       0x000007e0       0x12 Kernel/./init.o
 .comment       0x000007f2       0x12 Kernel/Interfaces/flat_namespace_object_factory.o
 .comment       0x00000804       0x12 Kernel/Interfaces/flat_namespace_object_factory_interface.o
 .comment       0x00000816       0x12 Kernel/Interfaces/init_init.o
 .comment       0x00000828       0x12 Kernel/Interfaces/init_interface.o
 .comment       0x0000083a       0x12 Kernel/Interfaces/irq_supplier_factory_init.o
 .comment       0x0000084c       0x12 Kernel/Interfaces/irq_supplier_factory_interface.o
 .comment       0x0000085e       0x12 Kernel/Interfaces/namespace_init.o
 .comment       0x00000870       0x12 Kernel/Interfaces/namespace_interface.o
 .comment       0x00000882       0x12 Kernel/Interfaces/storm_module_factory.o
 .comment       0x00000894       0x12 Kernel/Interfaces/storm_module_factory_interface.o
 .comment       0x000008a6       0x12 Kernel/Interfaces/storm_program_factory.o
 .comment       0x000008b8       0x12 Kernel/Interfaces/storm_program_factory_interface.o
 .comment       0x000008ca       0x12 Kernel/Interfaces/timer_interface.o
 .comment       0x000008dc       0x12 Kernel/Interfaces/timer_interface_init.o
 .comment       0x000008ee       0x12 Kernel/Events/debug_consumer_init.o
 .comment       0x00000900       0x12 Kernel/Events/debug_event_class.o
 .comment       0x00000912       0x12 Kernel/Events/debug_supplier_init.o
 .comment       0x00000924       0x12 Kernel/Events/irq_event_class.o
 .comment       0x00000936       0x12 Kernel/Events/irq_supplier_init.o
 .comment       0x00000948       0x12 Kernel/Classes/flat_namespace_init.o
 .comment       0x0000095a       0x12 Kernel/Classes/flat_namespace_interface.o
 .comment       0x0000096c       0x12 Kernel/Classes/flat_namespace_object.o
 .comment       0x0000097e       0x12 Kernel/Classes/storm_module.o
 .comment       0x00000990       0x12 Kernel/Classes/storm_module_control_init.o
 .comment       0x000009a2       0x12 Kernel/Classes/storm_module_control_interface.o
 .comment       0x000009b4       0x12 Kernel/Classes/storm_program.o
 .comment       0x000009c6       0x12 Kernel/Classes/storm_program_control_init.o
 .comment       0x000009d8       0x12 Kernel/Classes/storm_program_control_interface.o
 .comment       0x000009ea       0x12 /root/Chaos/Binaries/DebugGDB/Modules/Static/ata.a(interface.o)
 .comment       0x000009fc       0x12 /root/Chaos/Binaries/DebugGDB/Modules/Static/ata.a(ata.o)
 .comment       0x00000a0e       0x12 /root/Chaos/Binaries/DebugGDB/Modules/Static/ata.a(ata_drive_class.o)
 .comment       0x00000a20       0x12 /root/Chaos/Binaries/DebugGDB/Modules/Static/ata.a(ata_manager_class.o)
 .comment       0x00000a32       0x12 /root/Chaos/Binaries/DebugGDB/Modules/Static/ata.a(block_interface.o)
 .comment       0x00000a44       0x12 /root/Chaos/Binaries/DebugGDB/Modules/Static/ata.a(ata-internal.o)
 .comment       0x00000a56       0x12 /root/Chaos/Binaries/DebugGDB/Modules/Static/partition.a(interface.o)
 .comment       0x00000a68       0x12 /root/Chaos/Binaries/DebugGDB/Modules/Static/partition.a(partition.o)
 .comment       0x00000a7a       0x12 /root/Chaos/Binaries/DebugGDB/Modules/Static/partition.a(partition_class.o)
 .comment       0x00000a8c       0x12 /root/Chaos/Binaries/DebugGDB/Modules/Static/partition.a(partition_manager_class.o)
 .comment       0x00000a9e       0x12 /root/Chaos/Binaries/DebugGDB/Modules/Static/vfat.a(interface.o)
 .comment       0x00000ab0       0x12 /root/Chaos/Binaries/DebugGDB/Modules/Static/vfat.a(volume.o)
 .comment       0x00000ac2       0x12 /root/Chaos/Binaries/DebugGDB/Modules/Static/vfat.a(directory_read_write.o)
 .comment       0x00000ad4       0x12 /root/Chaos/Binaries/DebugGDB/Modules/Static/vfat.a(common.o)
 .comment       0x00000ae6       0x12 /root/Chaos/Binaries/DebugGDB/Modules/Static/vfat.a(directory_entry.o)
 .comment       0x00000af8       0x12 /root/Chaos/Binaries/DebugGDB/Modules/Static/vfat.a(file.o)
 .comment       0x00000b0a       0x12 /root/Chaos/Binaries/DebugGDB/Modules/Static/vfat.a(low_fat.o)
 .comment       0x00000b1c       0x12 /root/Chaos/Binaries/DebugGDB/Modules/Static/vfat.a(low_fat12.o)
 .comment       0x00000b2e       0x12 /root/Chaos/Binaries/DebugGDB/Modules/Static/vfat.a(low_fat16.o)
 .comment       0x00000b40       0x12 /root/Chaos/Binaries/DebugGDB/Modules/Static/vfat.a(low_fat32.o)
 .comment       0x00000b52       0x12 /root/Chaos/Binaries/DebugGDB/Modules/Static/vfat.a(read_write.o)
 .comment       0x00000b64       0x12 /root/Chaos/Binaries/Libraries/list.a(list.o)
 .comment       0x00000b76       0x12 /root/Chaos/Binaries/Libraries/pool_of_integers.a(pool_of_integers.o)
 .comment       0x00000b88       0x12 /root/Chaos/Binaries/Libraries/pool_of_ranges.a(id_pool.o)
 .comment       0x00000b9a       0x12 /root/Chaos/Binaries/Libraries/avl_tree.a(avl.o)
 .comment       0x00000bac       0x12 /root/Chaos/Binaries/Libraries/avl_tree.a(avl_util.o)
 .comment       0x00000bbe       0x12 /root/Chaos/Binaries/Libraries/string.a(character.o)
 .comment       0x00000bd0       0x12 /root/Chaos/Binaries/Libraries/string.a(format.o)
 .comment       0x00000be2       0x12 /root/Chaos/Binaries/Libraries/string.a(general-inlines.o)
 .comment       0x00000bf4       0x12 /root/Chaos/Binaries/Libraries/string.a(wformat.o)
 .comment       0x00000c06       0x12 /root/Chaos/Binaries/Libraries/string.a(wstring-inlines.o)
 .comment       0x00000c18       0x12 /root/Chaos/Binaries/Libraries/string.a(conversions.o)
 .comment       0x00000c2a       0x12 /root/Chaos/Binaries/Libraries/string.a(wconversions.o)
 .comment       0x00000c3c       0x12 /root/Chaos/Binaries/Libraries/hash_table.a(hash_table.o)

.debug
 *(.debug)

.line
 *(.line)

.debug_srcinfo
 *(.debug_srcinfo)

.debug_sfnames
 *(.debug_sfnames)

.debug_aranges  0x00000000     0x1080
 *(.debug_aranges)
 .debug_aranges
                0x00000000       0x20 ./init.o
 .debug_aranges
                0x00000020       0x20 Hardware/Boot/init.o
 .debug_aranges
                0x00000040       0x20 Hardware/Boot/multiboot.o
 .debug_aranges
                0x00000060       0x20 Hardware/Boot/parse.o
 .debug_aranges
                0x00000080       0x20 Hardware/SystemDebug/debug.o
 .debug_aranges
                0x000000a0       0x20 Hardware/SystemDebug/gdb.o
 .debug_aranges
                0x000000c0       0x20 Hardware/Cpu/bugs.o
 .debug_aranges
                0x000000e0       0x20 Hardware/Cpu/halt.o
 .debug_aranges
                0x00000100       0x20 Hardware/Cpu/identification.o
 .debug_aranges
                0x00000120       0x20 Hardware/Cpu/init.o
 .debug_aranges
                0x00000140       0x20 Hardware/Cpu/lock.o
 .debug_aranges
                0x00000160       0x20 Hardware/Cpu/speed.o
 .debug_aranges
                0x00000180       0x20 Hardware/Irq/irq.o
 .debug_aranges
                0x000001a0       0x20 Hardware/Irq/pic.o
 .debug_aranges
                0x000001c0       0x20 Hardware/Exception/init.o
 .debug_aranges
                0x000001e0       0x20 Hardware/Clock/time.o
 .debug_aranges
                0x00000200       0x20 Hardware/Dma/controller.o
 .debug_aranges
                0x00000220       0x20 Hardware/Dma/dma.o
 .debug_aranges
                0x00000240       0x20 Hardware/Timer/pit.o
 .debug_aranges
                0x00000260       0x20 Hardware/Timer/timer.o
 .debug_aranges
                0x00000280       0x20 Hardware/PhysicalMemory/allocate.o
 .debug_aranges
                0x000002a0       0x20 Hardware/PhysicalMemory/check.o
 .debug_aranges
                0x000002c0       0x20 Hardware/PhysicalMemory/deallocate.o
 .debug_aranges
                0x000002e0       0x20 Hardware/PhysicalMemory/init.o
 .debug_aranges
                0x00000300       0x20 Hardware/PhysicalMemory/internal.o
 .debug_aranges
                0x00000320       0x20 Hardware/PhysicalMemory/reallocate.o
 .debug_aranges
                0x00000340       0x20 Hardware/PhysicalMemory/reserve.o
 .debug_aranges
                0x00000360       0x20 Hardware/VirtualMemory/allocate.o
 .debug_aranges
                0x00000380       0x20 Hardware/VirtualMemory/create.o
 .debug_aranges
                0x000003a0       0x20 Hardware/VirtualMemory/deallocate.o
 .debug_aranges
                0x000003c0       0x20 Hardware/VirtualMemory/destroy.o
 .debug_aranges
                0x000003e0       0x20 Hardware/VirtualMemory/init.o
 .debug_aranges
                0x00000400       0x20 Hardware/VirtualMemory/internal.o
 .debug_aranges
                0x00000420       0x20 Hardware/VirtualMemory/page.o
 .debug_aranges
                0x00000440       0x20 Hardware/VirtualMemory/reserve.o
 .debug_aranges
                0x00000460       0x20 Hardware/TaskState/task_state.o
 .debug_aranges
                0x00000480       0x20 Hardware/TaskState/tss.o
 .debug_aranges
                0x000004a0       0x20 Hardware/IoPort/port.o
 .debug_aranges
                0x000004c0       0x20 Hardware/Elf/elf.o
 .debug_aranges
                0x000004e0       0x20 Hardware/SystemCall/system_call.o
 .debug_aranges
                0x00000500       0x20 Repository/./repository.o
 .debug_aranges
                0x00000520       0x20 Repository/Reference/system.o
 .debug_aranges
                0x00000540       0x20 Repository/Descriptions/Method/system.o
 .debug_aranges
                0x00000560       0x20 Repository/Descriptions/Interface/system.o
 .debug_aranges
                0x00000580       0x20 Repository/Descriptions/Class/system.o
 .debug_aranges
                0x000005a0       0x20 Repository/Descriptions/Event/system.o
 .debug_aranges
                0x000005c0       0x20 Repository/Method/init.o
 .debug_aranges
                0x000005e0       0x20 Repository/Method/static.o
 .debug_aranges
                0x00000600       0x20 Repository/Method/system.o
 .debug_aranges
                0x00000620       0x20 Repository/Interface/init.o
 .debug_aranges
                0x00000640       0x20 Repository/Interface/static.o
 .debug_aranges
                0x00000660       0x20 Repository/Interface/system.o
 .debug_aranges
                0x00000680       0x20 Repository/EventSupplierInterface/init.o
 .debug_aranges
                0x000006a0       0x20 Repository/EventSupplierInterface/static.o
 .debug_aranges
                0x000006c0       0x20 Repository/EventSupplierInterface/system.o
 .debug_aranges
                0x000006e0       0x20 Repository/EventSupplier/system.o
 .debug_aranges
                0x00000700       0x20 Repository/EventConsumerInterface/init.o
 .debug_aranges
                0x00000720       0x20 Repository/EventConsumerInterface/static.o
 .debug_aranges
                0x00000740       0x20 Repository/EventConsumerInterface/system.o
 .debug_aranges
                0x00000760       0x20 Repository/Class/init.o
 .debug_aranges
                0x00000780       0x20 Repository/Class/static.o
 .debug_aranges
                0x000007a0       0x20 Repository/Class/system.o
 .debug_aranges
                0x000007c0       0x20 Repository/Security/internal.o
 .debug_aranges
                0x000007e0       0x20 Repository/Security/static.o
 .debug_aranges
                0x00000800       0x20 Repository/Security/system.o
 .debug_aranges
                0x00000820       0x20 Repository/Cpu/init.o
 .debug_aranges
                0x00000840       0x20 Repository/Cpu/internal.o
 .debug_aranges
                0x00000860       0x20 Repository/Cpu/system.o
 .debug_aranges
                0x00000880       0x20 Repository/Memory/memory.o
 .debug_aranges
                0x000008a0       0x20 Repository/Memory/slab.o
 .debug_aranges
                0x000008c0       0x20 Repository/Memory/system.o
 .debug_aranges
                0x000008e0       0x20 Repository/Computer/internal.o
 .debug_aranges
                0x00000900       0x20 Repository/Computer/scheduler.o
 .debug_aranges
                0x00000920       0x20 Repository/Computer/system.o
 .debug_aranges
                0x00000940       0x20 Repository/Object/init.o
 .debug_aranges
                0x00000960       0x20 Repository/Object/static.o
 .debug_aranges
                0x00000980       0x20 Repository/Object/system.o
 .debug_aranges
                0x000009a0       0x20 Repository/Handle/init.o
 .debug_aranges
                0x000009c0       0x20 Repository/Handle/static.o
 .debug_aranges
                0x000009e0       0x20 Repository/Handle/system.o
 .debug_aranges
                0x00000a00       0x20 Repository/EventQueue/system.o
 .debug_aranges
                0x00000a20       0x20 Repository/Quality/system.o
 .debug_aranges
                0x00000a40       0x20 Kernel/./init.o
 .debug_aranges
                0x00000a60       0x20 Kernel/Interfaces/flat_namespace_object_factory.o
 .debug_aranges
                0x00000a80       0x20 Kernel/Interfaces/flat_namespace_object_factory_interface.o
 .debug_aranges
                0x00000aa0       0x20 Kernel/Interfaces/init_init.o
 .debug_aranges
                0x00000ac0       0x20 Kernel/Interfaces/init_interface.o
 .debug_aranges
                0x00000ae0       0x20 Kernel/Interfaces/irq_supplier_factory_init.o
 .debug_aranges
                0x00000b00       0x20 Kernel/Interfaces/irq_supplier_factory_interface.o
 .debug_aranges
                0x00000b20       0x20 Kernel/Interfaces/namespace_init.o
 .debug_aranges
                0x00000b40       0x20 Kernel/Interfaces/namespace_interface.o
 .debug_aranges
                0x00000b60       0x20 Kernel/Interfaces/storm_module_factory.o
 .debug_aranges
                0x00000b80       0x20 Kernel/Interfaces/storm_module_factory_interface.o
 .debug_aranges
                0x00000ba0       0x20 Kernel/Interfaces/storm_program_factory.o
 .debug_aranges
                0x00000bc0       0x20 Kernel/Interfaces/storm_program_factory_interface.o
 .debug_aranges
                0x00000be0       0x20 Kernel/Interfaces/timer_interface.o
 .debug_aranges
                0x00000c00       0x20 Kernel/Interfaces/timer_interface_init.o
 .debug_aranges
                0x00000c20       0x20 Kernel/Events/debug_consumer_init.o
 .debug_aranges
                0x00000c40       0x20 Kernel/Events/debug_event_class.o
 .debug_aranges
                0x00000c60       0x20 Kernel/Events/debug_supplier_init.o
 .debug_aranges
                0x00000c80       0x20 Kernel/Events/irq_event_class.o
 .debug_aranges
                0x00000ca0       0x20 Kernel/Events/irq_supplier_init.o
 .debug_aranges
                0x00000cc0       0x20 Kernel/Classes/flat_namespace_init.o
 .debug_aranges
                0x00000ce0       0x20 Kernel/Classes/flat_namespace_interface.o
 .debug_aranges
                0x00000d00       0x20 Kernel/Classes/flat_namespace_object.o
 .debug_aranges
                0x00000d20       0x20 Kernel/Classes/storm_module.o
 .debug_aranges
                0x00000d40       0x20 Kernel/Classes/storm_module_control_init.o
 .debug_aranges
                0x00000d60       0x20 Kernel/Classes/storm_module_control_interface.o
 .debug_aranges
                0x00000d80       0x20 Kernel/Classes/storm_program.o
 .debug_aranges
                0x00000da0       0x20 Kernel/Classes/storm_program_control_init.o
 .debug_aranges
                0x00000dc0       0x20 Kernel/Classes/storm_program_control_interface.o
 .debug_aranges
                0x00000de0       0x20 /root/Chaos/Binaries/DebugGDB/Modules/Static/ata.a(interface.o)
 .debug_aranges
                0x00000e00       0x20 /root/Chaos/Binaries/DebugGDB/Modules/Static/ata.a(ata.o)
 .debug_aranges
                0x00000e20       0x20 /root/Chaos/Binaries/DebugGDB/Modules/Static/ata.a(ata_drive_class.o)
 .debug_aranges
                0x00000e40       0x20 /root/Chaos/Binaries/DebugGDB/Modules/Static/ata.a(ata_manager_class.o)
 .debug_aranges
                0x00000e60       0x20 /root/Chaos/Binaries/DebugGDB/Modules/Static/ata.a(block_interface.o)
 .debug_aranges
                0x00000e80       0x20 /root/Chaos/Binaries/DebugGDB/Modules/Static/ata.a(ata-internal.o)
 .debug_aranges
                0x00000ea0       0x20 /root/Chaos/Binaries/DebugGDB/Modules/Static/partition.a(interface.o)
 .debug_aranges
                0x00000ec0       0x20 /root/Chaos/Binaries/DebugGDB/Modules/Static/partition.a(partition.o)
 .debug_aranges
                0x00000ee0       0x20 /root/Chaos/Binaries/DebugGDB/Modules/Static/partition.a(partition_class.o)
 .debug_aranges
                0x00000f00       0x20 /root/Chaos/Binaries/DebugGDB/Modules/Static/partition.a(partition_manager_class.o)
 .debug_aranges
                0x00000f20       0x20 /root/Chaos/Binaries/DebugGDB/Modules/Static/vfat.a(interface.o)
 .debug_aranges
                0x00000f40       0x20 /root/Chaos/Binaries/DebugGDB/Modules/Static/vfat.a(volume.o)
 .debug_aranges
                0x00000f60       0x20 /root/Chaos/Binaries/DebugGDB/Modules/Static/vfat.a(directory_read_write.o)
 .debug_aranges
                0x00000f80       0x20 /root/Chaos/Binaries/DebugGDB/Modules/Static/vfat.a(common.o)
 .debug_aranges
                0x00000fa0       0x20 /root/Chaos/Binaries/DebugGDB/Modules/Static/vfat.a(directory_entry.o)
 .debug_aranges
                0x00000fc0       0x20 /root/Chaos/Binaries/DebugGDB/Modules/Static/vfat.a(file.o)
 .debug_aranges
                0x00000fe0       0x20 /root/Chaos/Binaries/DebugGDB/Modules/Static/vfat.a(low_fat.o)
 .debug_aranges
                0x00001000       0x20 /root/Chaos/Binaries/DebugGDB/Modules/Static/vfat.a(low_fat12.o)
 .debug_aranges
                0x00001020       0x20 /root/Chaos/Binaries/DebugGDB/Modules/Static/vfat.a(low_fat16.o)
 .debug_aranges
                0x00001040       0x20 /root/Chaos/Binaries/DebugGDB/Modules/Static/vfat.a(low_fat32.o)
 .debug_aranges
                0x00001060       0x20 /root/Chaos/Binaries/DebugGDB/Modules/Static/vfat.a(read_write.o)

.debug_pubnames
                0x00000000     0x3207
 *(.debug_pubnames)
 .debug_pubnames
                0x00000000       0x80 ./init.o
 .debug_pubnames
                0x00000080       0x3e Hardware/Boot/init.o
 .debug_pubnames
                0x000000be       0x4d Hardware/Boot/multiboot.o
 .debug_pubnames
                0x0000010b       0x26 Hardware/Boot/parse.o
 .debug_pubnames
                0x00000131       0x57 Hardware/SystemDebug/debug.o
 .debug_pubnames
                0x00000188       0xf8 Hardware/SystemDebug/gdb.o
 .debug_pubnames
                0x00000280       0x26 Hardware/Cpu/bugs.o
 .debug_pubnames
                0x000002a6       0x1f Hardware/Cpu/halt.o
 .debug_pubnames
                0x000002c5       0x38 Hardware/Cpu/identification.o
 .debug_pubnames
                0x000002fd       0x44 Hardware/Cpu/init.o
 .debug_pubnames
                0x00000341       0x2e Hardware/Cpu/lock.o
 .debug_pubnames
                0x0000036f       0x24 Hardware/Cpu/speed.o
 .debug_pubnames
                0x00000393       0xb2 Hardware/Irq/irq.o
 .debug_pubnames
                0x00000445       0x9b Hardware/Irq/pic.o
 .debug_pubnames
                0x000004e0       0x36 Hardware/Exception/handlers.o
 .debug_pubnames
                0x00000516       0xa3 Hardware/Exception/init.o
 .debug_pubnames
                0x000005b9       0x21 Hardware/Clock/time.o
 .debug_pubnames
                0x000005da       0xb2 Hardware/Dma/controller.o
 .debug_pubnames
                0x0000068c       0x65 Hardware/Dma/dma.o
 .debug_pubnames
                0x000006f1       0x78 Hardware/Timer/pit.o
 .debug_pubnames
                0x00000769       0xbf Hardware/Timer/timer.o
 .debug_pubnames
                0x00000828       0x2f Hardware/PhysicalMemory/allocate.o
 .debug_pubnames
                0x00000857       0x2c Hardware/PhysicalMemory/check.o
 .debug_pubnames
                0x00000883       0x31 Hardware/PhysicalMemory/deallocate.o
 .debug_pubnames
                0x000008b4       0x8d Hardware/PhysicalMemory/init.o
 .debug_pubnames
                0x00000941       0xb1 Hardware/PhysicalMemory/internal.o
 .debug_pubnames
                0x000009f2       0x31 Hardware/PhysicalMemory/reallocate.o
 .debug_pubnames
                0x00000a23       0x2e Hardware/PhysicalMemory/reserve.o
 .debug_pubnames
                0x00000a51       0x2e Hardware/VirtualMemory/allocate.o
 .debug_pubnames
                0x00000a7f       0x2c Hardware/VirtualMemory/create.o
 .debug_pubnames
                0x00000aab       0x30 Hardware/VirtualMemory/deallocate.o
 .debug_pubnames
                0x00000adb       0x2d Hardware/VirtualMemory/destroy.o
 .debug_pubnames
                0x00000b08       0x75 Hardware/VirtualMemory/init.o
 .debug_pubnames
                0x00000b7d       0x86 Hardware/VirtualMemory/internal.o
 .debug_pubnames
                0x00000c03       0x68 Hardware/VirtualMemory/page.o
 .debug_pubnames
                0x00000c6b       0x2d Hardware/VirtualMemory/reserve.o
 .debug_pubnames
                0x00000c98       0xad Hardware/TaskState/task_state.o
 .debug_pubnames
                0x00000d45       0x46 Hardware/TaskState/tss.o
 .debug_pubnames
                0x00000d8b       0x4f Hardware/IoPort/port.o
 .debug_pubnames
                0x00000dda       0xe2 Hardware/Elf/elf.o
 .debug_pubnames
                0x00000ebc       0x37 Hardware/SystemCall/system_call.o
 .debug_pubnames
                0x00000ef3       0x26 Repository/./repository.o
 .debug_pubnames
                0x00000f19       0xee Repository/Reference/system.o
 .debug_pubnames
                0x00001007       0x54 Repository/Descriptions/Method/system.o
 .debug_pubnames
                0x0000105b       0x5a Repository/Descriptions/Interface/system.o
 .debug_pubnames
                0x000010b5       0x52 Repository/Descriptions/Class/system.o
 .debug_pubnames
                0x00001107       0x52 Repository/Descriptions/Event/system.o
 .debug_pubnames
                0x00001159       0x2d Repository/Method/init.o
 .debug_pubnames
                0x00001186       0x45 Repository/Method/static.o
 .debug_pubnames
                0x000011cb       0x49 Repository/Method/system.o
 .debug_pubnames
                0x00001214       0x30 Repository/Interface/init.o
 .debug_pubnames
                0x00001244       0x4b Repository/Interface/static.o
 .debug_pubnames
                0x0000128f       0x3d Repository/Interface/system.o
 .debug_pubnames
                0x000012cc       0x3f Repository/EventSupplierInterface/init.o
 .debug_pubnames
                0x0000130b       0x69 Repository/EventSupplierInterface/static.o
 .debug_pubnames
                0x00001374       0x84 Repository/EventSupplierInterface/system.o
 .debug_pubnames
                0x000013f8      0x170 Repository/EventSupplier/system.o
 .debug_pubnames
                0x00001568       0x3f Repository/EventConsumerInterface/init.o
 .debug_pubnames
                0x000015a7       0x69 Repository/EventConsumerInterface/static.o
 .debug_pubnames
                0x00001610       0x84 Repository/EventConsumerInterface/system.o
 .debug_pubnames
                0x00001694       0x2c Repository/Class/init.o
 .debug_pubnames
                0x000016c0       0x43 Repository/Class/static.o
 .debug_pubnames
                0x00001703       0x6c Repository/Class/system.o
 .debug_pubnames
                0x0000176f       0xac Repository/Security/internal.o
 .debug_pubnames
                0x0000181b       0x49 Repository/Security/static.o
 .debug_pubnames
                0x00001864       0x54 Repository/Security/system.o
 .debug_pubnames
                0x000018b8       0x39 Repository/Cpu/init.o
 .debug_pubnames
                0x000018f1       0x6b Repository/Cpu/internal.o
 .debug_pubnames
                0x0000195c       0x30 Repository/Cpu/system.o
 .debug_pubnames
                0x0000198c       0x3c Repository/Memory/memory.o
 .debug_pubnames
                0x000019c8       0x66 Repository/Memory/slab.o
 .debug_pubnames
                0x00001a2e       0x51 Repository/Memory/system.o
 .debug_pubnames
                0x00001a7f       0xe5 Repository/Computer/internal.o
 .debug_pubnames
                0x00001b64       0x6b Repository/Computer/scheduler.o
 .debug_pubnames
                0x00001bcf      0x112 Repository/Computer/system.o
 .debug_pubnames
                0x00001ce1       0x2d Repository/Object/init.o
 .debug_pubnames
                0x00001d0e       0x45 Repository/Object/static.o
 .debug_pubnames
                0x00001d53       0xf0 Repository/Object/system.o
 .debug_pubnames
                0x00001e43       0x2d Repository/Handle/init.o
 .debug_pubnames
                0x00001e70       0x5d Repository/Handle/static.o
 .debug_pubnames
                0x00001ecd       0x61 Repository/Handle/system.o
 .debug_pubnames
                0x00001f2e       0x41 Repository/EventQueue/system.o
 .debug_pubnames
                0x00001f6f       0x34 Repository/Quality/system.o
 .debug_pubnames
                0x00001fa3       0xb4 Kernel/./init.o
 .debug_pubnames
                0x00002057       0x39 Kernel/Interfaces/flat_namespace_object_factory.o
 .debug_pubnames
                0x00002090       0x47 Kernel/Interfaces/flat_namespace_object_factory_interface.o
 .debug_pubnames
                0x000020d7      0x13e Kernel/Interfaces/init_init.o
 .debug_pubnames
                0x00002215       0x38 Kernel/Interfaces/init_interface.o
 .debug_pubnames
                0x0000224d       0x30 Kernel/Interfaces/irq_supplier_factory_init.o
 .debug_pubnames
                0x0000227d       0x3e Kernel/Interfaces/irq_supplier_factory_interface.o
 .debug_pubnames
                0x000022bb       0x37 Kernel/Interfaces/namespace_init.o
 .debug_pubnames
                0x000022f2       0x33 Kernel/Interfaces/namespace_interface.o
 .debug_pubnames
                0x00002325       0x4e Kernel/Interfaces/storm_module_factory.o
 .debug_pubnames
                0x00002373       0x3e Kernel/Interfaces/storm_module_factory_interface.o
 .debug_pubnames
                0x000023b1       0x3b Kernel/Interfaces/storm_program_factory.o
 .debug_pubnames
                0x000023ec       0x3f Kernel/Interfaces/storm_program_factory_interface.o
 .debug_pubnames
                0x0000242b       0x2f Kernel/Interfaces/timer_interface.o
 .debug_pubnames
                0x0000245a       0x2b Kernel/Interfaces/timer_interface_init.o
 .debug_pubnames
                0x00002485       0x2a Kernel/Events/debug_consumer_init.o
 .debug_pubnames
                0x000024af       0x7d Kernel/Events/debug_event_class.o
 .debug_pubnames
                0x0000252c       0x40 Kernel/Events/debug_supplier_init.o
 .debug_pubnames
                0x0000256c       0x77 Kernel/Events/irq_event_class.o
 .debug_pubnames
                0x000025e3       0x28 Kernel/Events/irq_supplier_init.o
 .debug_pubnames
                0x0000260b       0x2a Kernel/Classes/flat_namespace_init.o
 .debug_pubnames
                0x00002635       0x38 Kernel/Classes/flat_namespace_interface.o
 .debug_pubnames
                0x0000266d       0x30 Kernel/Classes/flat_namespace_object.o
 .debug_pubnames
                0x0000269d       0x2e Kernel/Classes/storm_module.o
 .debug_pubnames
                0x000026cb       0x30 Kernel/Classes/storm_module_control_init.o
 .debug_pubnames
                0x000026fb       0x3e Kernel/Classes/storm_module_control_interface.o
 .debug_pubnames
                0x00002739       0x2f Kernel/Classes/storm_program.o
 .debug_pubnames
                0x00002768       0x31 Kernel/Classes/storm_program_control_init.o
 .debug_pubnames
                0x00002799       0x3f Kernel/Classes/storm_program_control_interface.o
 .debug_pubnames
                0x000027d8       0xb6 /root/Chaos/Binaries/DebugGDB/Modules/Static/ata.a(interface.o)
 .debug_pubnames
                0x0000288e       0x3f /root/Chaos/Binaries/DebugGDB/Modules/Static/ata.a(ata.o)
 .debug_pubnames
                0x000028cd       0x2f /root/Chaos/Binaries/DebugGDB/Modules/Static/ata.a(ata_drive_class.o)
 .debug_pubnames
                0x000028fc       0x31 /root/Chaos/Binaries/DebugGDB/Modules/Static/ata.a(ata_manager_class.o)
 .debug_pubnames
                0x0000292d       0x2f /root/Chaos/Binaries/DebugGDB/Modules/Static/ata.a(block_interface.o)
 .debug_pubnames
                0x0000295c       0x42 /root/Chaos/Binaries/DebugGDB/Modules/Static/ata.a(ata-internal.o)
 .debug_pubnames
                0x0000299e       0x8d /root/Chaos/Binaries/DebugGDB/Modules/Static/partition.a(interface.o)
 .debug_pubnames
                0x00002a2b       0x3f /root/Chaos/Binaries/DebugGDB/Modules/Static/partition.a(partition.o)
 .debug_pubnames
                0x00002a6a       0x2f /root/Chaos/Binaries/DebugGDB/Modules/Static/partition.a(partition_class.o)
 .debug_pubnames
                0x00002a99       0x37 /root/Chaos/Binaries/DebugGDB/Modules/Static/partition.a(partition_manager_class.o)
 .debug_pubnames
                0x00002ad0       0x20 /root/Chaos/Binaries/DebugGDB/Modules/Static/vfat.a(interface.o)
 .debug_pubnames
                0x00002af0       0xa4 /root/Chaos/Binaries/DebugGDB/Modules/Static/vfat.a(volume.o)
 .debug_pubnames
                0x00002b94       0x4f /root/Chaos/Binaries/DebugGDB/Modules/Static/vfat.a(directory_read_write.o)
 .debug_pubnames
                0x00002be3       0xa8 /root/Chaos/Binaries/DebugGDB/Modules/Static/vfat.a(common.o)
 .debug_pubnames
                0x00002c8b      0x115 /root/Chaos/Binaries/DebugGDB/Modules/Static/vfat.a(directory_entry.o)
 .debug_pubnames
                0x00002da0      0x161 /root/Chaos/Binaries/DebugGDB/Modules/Static/vfat.a(file.o)
 .debug_pubnames
                0x00002f01       0x70 /root/Chaos/Binaries/DebugGDB/Modules/Static/vfat.a(low_fat.o)
 .debug_pubnames
                0x00002f71       0x89 /root/Chaos/Binaries/DebugGDB/Modules/Static/vfat.a(low_fat12.o)
 .debug_pubnames
                0x00002ffa       0x89 /root/Chaos/Binaries/DebugGDB/Modules/Static/vfat.a(low_fat16.o)
 .debug_pubnames
                0x00003083       0x89 /root/Chaos/Binaries/DebugGDB/Modules/Static/vfat.a(low_fat32.o)
 .debug_pubnames
                0x0000310c       0xfb /root/Chaos/Binaries/DebugGDB/Modules/Static/vfat.a(read_write.o)

.debug_info     0x00000000   0x5aaffb
 *(.debug_info)
 .debug_info    0x00000000     0x99a9 ./init.o
 .debug_info    0x000099a9     0x8d9c Hardware/Boot/init.o
 .debug_info    0x00012745     0x8eb9 Hardware/Boot/multiboot.o
 .debug_info    0x0001b5fe     0x88e1 Hardware/Boot/parse.o
 .debug_info    0x00023edf     0x8e66 Hardware/SystemDebug/debug.o
 .debug_info    0x0002cd45     0x9300 Hardware/SystemDebug/gdb.o
 .debug_info    0x00036045     0x899a Hardware/Cpu/bugs.o
 .debug_info    0x0003e9df     0x8954 Hardware/Cpu/halt.o
 .debug_info    0x00047333     0x93bd Hardware/Cpu/identification.o
 .debug_info    0x000506f0     0x8b1b Hardware/Cpu/init.o
 .debug_info    0x0005920b     0x8969 Hardware/Cpu/lock.o
 .debug_info    0x00061b74     0x8a8b Hardware/Cpu/speed.o
 .debug_info    0x0006a5ff     0x8b02 Hardware/Irq/irq.o
 .debug_info    0x00073101     0x8a9f Hardware/Irq/pic.o
 .debug_info    0x0007bba0     0x8875 Hardware/Exception/handlers.o
 .debug_info    0x00084415     0x90c5 Hardware/Exception/init.o
 .debug_info    0x0008d4da     0x8e16 Hardware/Clock/time.o
 .debug_info    0x000962f0     0x8e3c Hardware/Dma/controller.o
 .debug_info    0x0009f12c     0x8a44 Hardware/Dma/dma.o
 .debug_info    0x000a7b70     0x8be2 Hardware/Timer/pit.o
 .debug_info    0x000b0752     0x8d9b Hardware/Timer/timer.o
 .debug_info    0x000b94ed     0x89b0 Hardware/PhysicalMemory/allocate.o
 .debug_info    0x000c1e9d     0x896b Hardware/PhysicalMemory/check.o
 .debug_info    0x000ca808     0x898c Hardware/PhysicalMemory/deallocate.o
 .debug_info    0x000d3194     0x8c91 Hardware/PhysicalMemory/init.o
 .debug_info    0x000dbe25     0x8b0c Hardware/PhysicalMemory/internal.o
 .debug_info    0x000e4931     0x8965 Hardware/PhysicalMemory/reallocate.o
 .debug_info    0x000ed296     0x8986 Hardware/PhysicalMemory/reserve.o
 .debug_info    0x000f5c1c     0x8ae6 Hardware/VirtualMemory/allocate.o
 .debug_info    0x000fe702     0x8ba2 Hardware/VirtualMemory/create.o
 .debug_info    0x001072a4     0x8988 Hardware/VirtualMemory/deallocate.o
 .debug_info    0x0010fc2c     0x896f Hardware/VirtualMemory/destroy.o
 .debug_info    0x0011859b     0x8b28 Hardware/VirtualMemory/init.o
 .debug_info    0x001210c3     0x8a67 Hardware/VirtualMemory/internal.o
 .debug_info    0x00129b2a     0x901e Hardware/VirtualMemory/page.o
 .debug_info    0x00132b48     0x8ab1 Hardware/VirtualMemory/reserve.o
 .debug_info    0x0013b5f9     0x8b5a Hardware/TaskState/task_state.o
 .debug_info    0x00144153     0x8ad1 Hardware/TaskState/tss.o
 .debug_info    0x0014cc24     0x892e Hardware/IoPort/port.o
 .debug_info    0x00155552     0x938e Hardware/Elf/elf.o
 .debug_info    0x0015e8e0     0x8a8f Hardware/SystemCall/system_call.o
 .debug_info    0x0016736f     0x8956 Repository/./repository.o
 .debug_info    0x0016fcc5     0x8f68 Repository/Reference/system.o
 .debug_info    0x00178c2d     0x8a0e Repository/Descriptions/Method/system.o
 .debug_info    0x0018163b     0x89dd Repository/Descriptions/Interface/system.o
 .debug_info    0x0018a018     0x8a1a Repository/Descriptions/Class/system.o
 .debug_info    0x00192a32     0x89ba Repository/Descriptions/Event/system.o
 .debug_info    0x0019b3ec     0x895f Repository/Method/init.o
 .debug_info    0x001a3d4b     0x891d Repository/Method/internal.o
 .debug_info    0x001ac668     0x88df Repository/Method/parameters_check.o
 .debug_info    0x001b4f47     0x88dd Repository/Method/security_check.o
 .debug_info    0x001bd824     0x8de4 Repository/Method/static.o
 .debug_info    0x001c6608     0x927c Repository/Method/system.o
 .debug_info    0x001cf884     0x88da Repository/Method/transaction.o
 .debug_info    0x001d815e     0x8965 Repository/Interface/init.o
 .debug_info    0x001e0ac3     0x8920 Repository/Interface/internal.o
 .debug_info    0x001e93e3     0x88e2 Repository/Interface/parameters_check.o
 .debug_info    0x001f1cc5     0x88e0 Repository/Interface/security_check.o
 .debug_info    0x001fa5a5     0x8fed Repository/Interface/static.o
 .debug_info    0x00203592     0x9299 Repository/Interface/system.o
 .debug_info    0x0020c82b     0x88dd Repository/Interface/transaction.o
 .debug_info    0x00215108     0x8981 Repository/EventSupplierInterface/init.o
 .debug_info    0x0021da89     0x892d Repository/EventSupplierInterface/internal.o
 .debug_info    0x002263b6     0x88ef Repository/EventSupplierInterface/parameters_check.o
 .debug_info    0x0022eca5     0x88ed Repository/EventSupplierInterface/security_check.o
 .debug_info    0x00237592     0x8ef5 Repository/EventSupplierInterface/static.o
 .debug_info    0x00240487     0x91d6 Repository/EventSupplierInterface/system.o
 .debug_info    0x0024965d     0x88ea Repository/EventSupplierInterface/transaction.o
 .debug_info    0x00251f47     0xa7bb Repository/EventSupplier/system.o
 .debug_info    0x0025c702     0x8981 Repository/EventConsumerInterface/init.o
 .debug_info    0x00265083     0x892d Repository/EventConsumerInterface/internal.o
 .debug_info    0x0026d9b0     0x88ef Repository/EventConsumerInterface/parameters_check.o
 .debug_info    0x0027629f     0x88ed Repository/EventConsumerInterface/security_check.o
 .debug_info    0x0027eb8c     0x8ef5 Repository/EventConsumerInterface/static.o
 .debug_info    0x00287a81     0x91fb Repository/EventConsumerInterface/system.o
 .debug_info    0x00290c7c     0x88ea Repository/EventConsumerInterface/transaction.o
 .debug_info    0x00299566     0x8917 Repository/Class/init.o
 .debug_info    0x002a1e7d     0x891c Repository/Class/internal.o
 .debug_info    0x002aa799     0x88de Repository/Class/parameters_check.o
 .debug_info    0x002b3077     0x88dc Repository/Class/security_check.o
 .debug_info    0x002bb953     0x907b Repository/Class/static.o
 .debug_info    0x002c49ce     0x96cc Repository/Class/system.o
 .debug_info    0x002ce09a     0x88d9 Repository/Class/transaction.o
 .debug_info    0x002d6973     0x8db0 Repository/Security/internal.o
 .debug_info    0x002df723     0x88e1 Repository/Security/parameters_check.o
 .debug_info    0x002e8004     0x88df Repository/Security/security_check.o
 .debug_info    0x002f08e3     0x89da Repository/Security/static.o
 .debug_info    0x002f92bd     0x8a84 Repository/Security/system.o
 .debug_info    0x00301d41     0x890c Repository/Cpu/init.o
 .debug_info    0x0030a64d     0x8a55 Repository/Cpu/internal.o
 .debug_info    0x003130a2     0x896c Repository/Cpu/system.o
 .debug_info    0x0031ba0e     0x8ba6 Repository/Memory/memory.o
 .debug_info    0x003245b4     0x8be8 Repository/Memory/slab.o
 .debug_info    0x0032d19c     0x8b8b Repository/Memory/system.o
 .debug_info    0x00335d27     0x93f7 Repository/Computer/internal.o
 .debug_info    0x0033f11e     0x89d3 Repository/Computer/scheduler.o
 .debug_info    0x00347af1     0x8ed6 Repository/Computer/system.o
 .debug_info    0x003509c7     0x8919 Repository/Object/init.o
 .debug_info    0x003592e0     0x891d Repository/Object/internal.o
 .debug_info    0x00361bfd     0x88df Repository/Object/parameters_check.o
 .debug_info    0x0036a4dc     0x88dd Repository/Object/security_check.o
 .debug_info    0x00372db9     0x98a2 Repository/Object/static.o
 .debug_info    0x0037c65b     0xa11a Repository/Object/system.o
 .debug_info    0x00386775     0x88da Repository/Object/transaction.o
 .debug_info    0x0038f04f     0x8919 Repository/Handle/init.o
 .debug_info    0x00397968     0x891d Repository/Handle/internal.o
 .debug_info    0x003a0285     0x88df Repository/Handle/parameters_check.o
 .debug_info    0x003a8b64     0x88dd Repository/Handle/security_check.o
 .debug_info    0x003b1441     0x90be Repository/Handle/static.o
 .debug_info    0x003ba4ff     0x9de4 Repository/Handle/system.o
 .debug_info    0x003c42e3     0x8c50 Repository/EventQueue/system.o
 .debug_info    0x003ccf33     0x89a8 Repository/Quality/system.o
 .debug_info    0x003d58db     0x967b Kernel/./init.o
 .debug_info    0x003def56     0x8f69 Kernel/Interfaces/flat_namespace_object_factory.o
 .debug_info    0x003e7ebf     0x8e5b Kernel/Interfaces/flat_namespace_object_factory_interface.o
 .debug_info    0x003f0d1a     0xaa74 Kernel/Interfaces/init_init.o
 .debug_info    0x003fb78e     0x8f0e Kernel/Interfaces/init_interface.o
 .debug_info    0x0040469c     0x956d Kernel/Interfaces/irq_supplier_factory_init.o
 .debug_info    0x0040dc09     0x8ef8 Kernel/Interfaces/irq_supplier_factory_interface.o
 .debug_info    0x00416b01     0xa094 Kernel/Interfaces/namespace_init.o
 .debug_info    0x00420b95     0x9083 Kernel/Interfaces/namespace_interface.o
 .debug_info    0x00429c18     0x9174 Kernel/Interfaces/storm_module_factory.o
 .debug_info    0x00432d8c     0x8e4f Kernel/Interfaces/storm_module_factory_interface.o
 .debug_info    0x0043bbdb     0x91dd Kernel/Interfaces/storm_program_factory.o
 .debug_info    0x00444db8     0x8e65 Kernel/Interfaces/storm_program_factory_interface.o
 .debug_info    0x0044dc1d     0x8c8f Kernel/Interfaces/timer_interface.o
 .debug_info    0x004568ac     0x9435 Kernel/Interfaces/timer_interface_init.o
 .debug_info    0x0045fce1     0x9256 Kernel/Events/debug_consumer_init.o
 .debug_info    0x00468f37     0x9123 Kernel/Events/debug_event_class.o
 .debug_info    0x0047205a     0x9214 Kernel/Events/debug_supplier_init.o
 .debug_info    0x0047b26e     0x8f69 Kernel/Events/irq_event_class.o
 .debug_info    0x004841d7     0x9420 Kernel/Events/irq_supplier_init.o
 .debug_info    0x0048d5f7     0x9332 Kernel/Classes/flat_namespace_init.o
 .debug_info    0x00496929     0x9221 Kernel/Classes/flat_namespace_interface.o
 .debug_info    0x0049fb4a     0x92db Kernel/Classes/flat_namespace_object.o
 .debug_info    0x004a8e25     0x9186 Kernel/Classes/storm_module.o
 .debug_info    0x004b1fab     0x8dad Kernel/Classes/storm_module_control_init.o
 .debug_info    0x004bad58     0x8eab Kernel/Classes/storm_module_control_interface.o
 .debug_info    0x004c3c03     0x9069 Kernel/Classes/storm_program.o
 .debug_info    0x004ccc6c     0x8c88 Kernel/Classes/storm_program_control_init.o
 .debug_info    0x004d58f4     0x8d40 Kernel/Classes/storm_program_control_interface.o
 .debug_info    0x004de634     0x9e20 /root/Chaos/Binaries/DebugGDB/Modules/Static/ata.a(interface.o)
 .debug_info    0x004e8454     0x9f58 /root/Chaos/Binaries/DebugGDB/Modules/Static/ata.a(ata.o)
 .debug_info    0x004f23ac     0x8a22 /root/Chaos/Binaries/DebugGDB/Modules/Static/ata.a(ata_drive_class.o)
 .debug_info    0x004fadce     0x8914 /root/Chaos/Binaries/DebugGDB/Modules/Static/ata.a(ata_manager_class.o)
 .debug_info    0x005036e2     0x8de1 /root/Chaos/Binaries/DebugGDB/Modules/Static/ata.a(block_interface.o)
 .debug_info    0x0050c4c3     0x9b7e /root/Chaos/Binaries/DebugGDB/Modules/Static/ata.a(ata-internal.o)
 .debug_info    0x00516041     0x9d4c /root/Chaos/Binaries/DebugGDB/Modules/Static/partition.a(interface.o)
 .debug_info    0x0051fd8d     0x9811 /root/Chaos/Binaries/DebugGDB/Modules/Static/partition.a(partition.o)
 .debug_info    0x0052959e     0x8acb /root/Chaos/Binaries/DebugGDB/Modules/Static/partition.a(partition_class.o)
 .debug_info    0x00532069     0x8926 /root/Chaos/Binaries/DebugGDB/Modules/Static/partition.a(partition_manager_class.o)
 .debug_info    0x0053a98f     0xa6ef /root/Chaos/Binaries/DebugGDB/Modules/Static/vfat.a(interface.o)
 .debug_info    0x0054507e     0xa438 /root/Chaos/Binaries/DebugGDB/Modules/Static/vfat.a(volume.o)
 .debug_info    0x0054f4b6     0xa539 /root/Chaos/Binaries/DebugGDB/Modules/Static/vfat.a(directory_read_write.o)
 .debug_info    0x005599ef     0x9d4c /root/Chaos/Binaries/DebugGDB/Modules/Static/vfat.a(common.o)
 .debug_info    0x0056373b     0xa0cd /root/Chaos/Binaries/DebugGDB/Modules/Static/vfat.a(directory_entry.o)
 .debug_info    0x0056d808     0xa636 /root/Chaos/Binaries/DebugGDB/Modules/Static/vfat.a(file.o)
 .debug_info    0x00577e3e     0xa27c /root/Chaos/Binaries/DebugGDB/Modules/Static/vfat.a(low_fat.o)
 .debug_info    0x005820ba     0xa36b /root/Chaos/Binaries/DebugGDB/Modules/Static/vfat.a(low_fat12.o)
 .debug_info    0x0058c425     0xa34c /root/Chaos/Binaries/DebugGDB/Modules/Static/vfat.a(low_fat16.o)
 .debug_info    0x00596771     0xa34c /root/Chaos/Binaries/DebugGDB/Modules/Static/vfat.a(low_fat32.o)
 .debug_info    0x005a0abd     0xa53e /root/Chaos/Binaries/DebugGDB/Modules/Static/vfat.a(read_write.o)
 *(.gnu.linkonce.wi.*)

.debug_abbrev   0x00000000    0x13d94
 *(.debug_abbrev)
 .debug_abbrev  0x00000000      0x26e ./init.o
 .debug_abbrev  0x0000026e      0x1d1 Hardware/Boot/init.o
 .debug_abbrev  0x0000043f      0x213 Hardware/Boot/multiboot.o
 .debug_abbrev  0x00000652      0x1bc Hardware/Boot/parse.o
 .debug_abbrev  0x0000080e      0x21b Hardware/SystemDebug/debug.o
 .debug_abbrev  0x00000a29      0x317 Hardware/SystemDebug/gdb.o
 .debug_abbrev  0x00000d40      0x1f0 Hardware/Cpu/bugs.o
 .debug_abbrev  0x00000f30      0x1d8 Hardware/Cpu/halt.o
 .debug_abbrev  0x00001108      0x2c1 Hardware/Cpu/identification.o
 .debug_abbrev  0x000013c9      0x21d Hardware/Cpu/init.o
 .debug_abbrev  0x000015e6      0x1b8 Hardware/Cpu/lock.o
 .debug_abbrev  0x0000179e      0x22c Hardware/Cpu/speed.o
 .debug_abbrev  0x000019ca      0x210 Hardware/Irq/irq.o
 .debug_abbrev  0x00001bda      0x22e Hardware/Irq/pic.o
 .debug_abbrev  0x00001e08      0x196 Hardware/Exception/handlers.o
 .debug_abbrev  0x00001f9e      0x27e Hardware/Exception/init.o
 .debug_abbrev  0x0000221c      0x250 Hardware/Clock/time.o
 .debug_abbrev  0x0000246c      0x229 Hardware/Dma/controller.o
 .debug_abbrev  0x00002695      0x1cd Hardware/Dma/dma.o
 .debug_abbrev  0x00002862      0x23f Hardware/Timer/pit.o
 .debug_abbrev  0x00002aa1      0x1d1 Hardware/Timer/timer.o
 .debug_abbrev  0x00002c72      0x1c5 Hardware/PhysicalMemory/allocate.o
 .debug_abbrev  0x00002e37      0x1ad Hardware/PhysicalMemory/check.o
 .debug_abbrev  0x00002fe4      0x1bc Hardware/PhysicalMemory/deallocate.o
 .debug_abbrev  0x000031a0      0x219 Hardware/PhysicalMemory/init.o
 .debug_abbrev  0x000033b9      0x207 Hardware/PhysicalMemory/internal.o
 .debug_abbrev  0x000035c0      0x1ad Hardware/PhysicalMemory/reallocate.o
 .debug_abbrev  0x0000376d      0x1bc Hardware/PhysicalMemory/reserve.o
 .debug_abbrev  0x00003929      0x1d0 Hardware/VirtualMemory/allocate.o
 .debug_abbrev  0x00003af9      0x22f Hardware/VirtualMemory/create.o
 .debug_abbrev  0x00003d28      0x1bc Hardware/VirtualMemory/deallocate.o
 .debug_abbrev  0x00003ee4      0x1bc Hardware/VirtualMemory/destroy.o
 .debug_abbrev  0x000040a0      0x1d6 Hardware/VirtualMemory/init.o
 .debug_abbrev  0x00004276      0x1d3 Hardware/VirtualMemory/internal.o
 .debug_abbrev  0x00004449      0x27e Hardware/VirtualMemory/page.o
 .debug_abbrev  0x000046c7      0x1d0 Hardware/VirtualMemory/reserve.o
 .debug_abbrev  0x00004897      0x230 Hardware/TaskState/task_state.o
 .debug_abbrev  0x00004ac7      0x217 Hardware/TaskState/tss.o
 .debug_abbrev  0x00004cde      0x1ad Hardware/IoPort/port.o
 .debug_abbrev  0x00004e8b      0x24c Hardware/Elf/elf.o
 .debug_abbrev  0x000050d7      0x1f2 Hardware/SystemCall/system_call.o
 .debug_abbrev  0x000052c9      0x1bc Repository/./repository.o
 .debug_abbrev  0x00005485      0x234 Repository/Reference/system.o
 .debug_abbrev  0x000056b9      0x1d3 Repository/Descriptions/Method/system.o
 .debug_abbrev  0x0000588c      0x1d3 Repository/Descriptions/Interface/system.o
 .debug_abbrev  0x00005a5f      0x1d3 Repository/Descriptions/Class/system.o
 .debug_abbrev  0x00005c32      0x1d3 Repository/Descriptions/Event/system.o
 .debug_abbrev  0x00005e05      0x1ab Repository/Method/init.o
 .debug_abbrev  0x00005fb0      0x185 Repository/Method/internal.o
 .debug_abbrev  0x00006135      0x185 Repository/Method/parameters_check.o
 .debug_abbrev  0x000062ba      0x185 Repository/Method/security_check.o
 .debug_abbrev  0x0000643f      0x240 Repository/Method/static.o
 .debug_abbrev  0x0000667f      0x237 Repository/Method/system.o
 .debug_abbrev  0x000068b6      0x185 Repository/Method/transaction.o
 .debug_abbrev  0x00006a3b      0x1ab Repository/Interface/init.o
 .debug_abbrev  0x00006be6      0x185 Repository/Interface/internal.o
 .debug_abbrev  0x00006d6b      0x185 Repository/Interface/parameters_check.o
 .debug_abbrev  0x00006ef0      0x185 Repository/Interface/security_check.o
 .debug_abbrev  0x00007075      0x240 Repository/Interface/static.o
 .debug_abbrev  0x000072b5      0x23e Repository/Interface/system.o
 .debug_abbrev  0x000074f3      0x185 Repository/Interface/transaction.o
 .debug_abbrev  0x00007678      0x1ab Repository/EventSupplierInterface/init.o
 .debug_abbrev  0x00007823      0x185 Repository/EventSupplierInterface/internal.o
 .debug_abbrev  0x000079a8      0x185 Repository/EventSupplierInterface/parameters_check.o
 .debug_abbrev  0x00007b2d      0x185 Repository/EventSupplierInterface/security_check.o
 .debug_abbrev  0x00007cb2      0x240 Repository/EventSupplierInterface/static.o
 .debug_abbrev  0x00007ef2      0x237 Repository/EventSupplierInterface/system.o
 .debug_abbrev  0x00008129      0x185 Repository/EventSupplierInterface/transaction.o
 .debug_abbrev  0x000082ae      0x26a Repository/EventSupplier/system.o
 .debug_abbrev  0x00008518      0x1ab Repository/EventConsumerInterface/init.o
 .debug_abbrev  0x000086c3      0x185 Repository/EventConsumerInterface/internal.o
 .debug_abbrev  0x00008848      0x185 Repository/EventConsumerInterface/parameters_check.o
 .debug_abbrev  0x000089cd      0x185 Repository/EventConsumerInterface/security_check.o
 .debug_abbrev  0x00008b52      0x240 Repository/EventConsumerInterface/static.o
 .debug_abbrev  0x00008d92      0x237 Repository/EventConsumerInterface/system.o
 .debug_abbrev  0x00008fc9      0x185 Repository/EventConsumerInterface/transaction.o
 .debug_abbrev  0x0000914e      0x1ab Repository/Class/init.o
 .debug_abbrev  0x000092f9      0x185 Repository/Class/internal.o
 .debug_abbrev  0x0000947e      0x185 Repository/Class/parameters_check.o
 .debug_abbrev  0x00009603      0x185 Repository/Class/security_check.o
 .debug_abbrev  0x00009788      0x240 Repository/Class/static.o
 .debug_abbrev  0x000099c8      0x23e Repository/Class/system.o
 .debug_abbrev  0x00009c06      0x185 Repository/Class/transaction.o
 .debug_abbrev  0x00009d8b      0x251 Repository/Security/internal.o
 .debug_abbrev  0x00009fdc      0x185 Repository/Security/parameters_check.o
 .debug_abbrev  0x0000a161      0x185 Repository/Security/security_check.o
 .debug_abbrev  0x0000a2e6      0x1d3 Repository/Security/static.o
 .debug_abbrev  0x0000a4b9      0x238 Repository/Security/system.o
 .debug_abbrev  0x0000a6f1      0x1ab Repository/Cpu/init.o
 .debug_abbrev  0x0000a89c      0x1f3 Repository/Cpu/internal.o
 .debug_abbrev  0x0000aa8f      0x1be Repository/Cpu/system.o
 .debug_abbrev  0x0000ac4d      0x1bc Repository/Memory/memory.o
 .debug_abbrev  0x0000ae09      0x1cd Repository/Memory/slab.o
 .debug_abbrev  0x0000afd6      0x246 Repository/Memory/system.o
 .debug_abbrev  0x0000b21c      0x279 Repository/Computer/internal.o
 .debug_abbrev  0x0000b495      0x1d3 Repository/Computer/scheduler.o
 .debug_abbrev  0x0000b668      0x259 Repository/Computer/system.o
 .debug_abbrev  0x0000b8c1      0x1ab Repository/Object/init.o
 .debug_abbrev  0x0000ba6c      0x185 Repository/Object/internal.o
 .debug_abbrev  0x0000bbf1      0x185 Repository/Object/parameters_check.o
 .debug_abbrev  0x0000bd76      0x185 Repository/Object/security_check.o
 .debug_abbrev  0x0000befb      0x26b Repository/Object/static.o
 .debug_abbrev  0x0000c166      0x279 Repository/Object/system.o
 .debug_abbrev  0x0000c3df      0x185 Repository/Object/transaction.o
 .debug_abbrev  0x0000c564      0x1ab Repository/Handle/init.o
 .debug_abbrev  0x0000c70f      0x185 Repository/Handle/internal.o
 .debug_abbrev  0x0000c894      0x185 Repository/Handle/parameters_check.o
 .debug_abbrev  0x0000ca19      0x185 Repository/Handle/security_check.o
 .debug_abbrev  0x0000cb9e      0x240 Repository/Handle/static.o
 .debug_abbrev  0x0000cdde      0x23e Repository/Handle/system.o
 .debug_abbrev  0x0000d01c      0x237 Repository/EventQueue/system.o
 .debug_abbrev  0x0000d253      0x1ab Repository/Quality/system.o
 .debug_abbrev  0x0000d3fe      0x1c5 Kernel/./init.o
 .debug_abbrev  0x0000d5c3      0x23b Kernel/Interfaces/flat_namespace_object_factory.o
 .debug_abbrev  0x0000d7fe      0x209 Kernel/Interfaces/flat_namespace_object_factory_interface.o
 .debug_abbrev  0x0000da07      0x2bc Kernel/Interfaces/init_init.o
 .debug_abbrev  0x0000dcc3      0x209 Kernel/Interfaces/init_interface.o
 .debug_abbrev  0x0000decc      0x224 Kernel/Interfaces/irq_supplier_factory_init.o
 .debug_abbrev  0x0000e0f0      0x209 Kernel/Interfaces/irq_supplier_factory_interface.o
 .debug_abbrev  0x0000e2f9      0x2a6 Kernel/Interfaces/namespace_init.o
 .debug_abbrev  0x0000e59f      0x209 Kernel/Interfaces/namespace_interface.o
 .debug_abbrev  0x0000e7a8      0x273 Kernel/Interfaces/storm_module_factory.o
 .debug_abbrev  0x0000ea1b      0x209 Kernel/Interfaces/storm_module_factory_interface.o
 .debug_abbrev  0x0000ec24      0x262 Kernel/Interfaces/storm_program_factory.o
 .debug_abbrev  0x0000ee86      0x209 Kernel/Interfaces/storm_program_factory_interface.o
 .debug_abbrev  0x0000f08f      0x209 Kernel/Interfaces/timer_interface.o
 .debug_abbrev  0x0000f298      0x1da Kernel/Interfaces/timer_interface_init.o
 .debug_abbrev  0x0000f472      0x1da Kernel/Events/debug_consumer_init.o
 .debug_abbrev  0x0000f64c      0x240 Kernel/Events/debug_event_class.o
 .debug_abbrev  0x0000f88c      0x1c7 Kernel/Events/debug_supplier_init.o
 .debug_abbrev  0x0000fa53      0x240 Kernel/Events/irq_event_class.o
 .debug_abbrev  0x0000fc93      0x1b6 Kernel/Events/irq_supplier_init.o
 .debug_abbrev  0x0000fe49      0x23b Kernel/Classes/flat_namespace_init.o
 .debug_abbrev  0x00010084      0x209 Kernel/Classes/flat_namespace_interface.o
 .debug_abbrev  0x0001028d      0x1b6 Kernel/Classes/flat_namespace_object.o
 .debug_abbrev  0x00010443      0x1b6 Kernel/Classes/storm_module.o
 .debug_abbrev  0x000105f9      0x1e3 Kernel/Classes/storm_module_control_init.o
 .debug_abbrev  0x000107dc      0x209 Kernel/Classes/storm_module_control_interface.o
 .debug_abbrev  0x000109e5      0x1b6 Kernel/Classes/storm_program.o
 .debug_abbrev  0x00010b9b      0x1e5 Kernel/Classes/storm_program_control_init.o
 .debug_abbrev  0x00010d80      0x209 Kernel/Classes/storm_program_control_interface.o
 .debug_abbrev  0x00010f89      0x255 /root/Chaos/Binaries/DebugGDB/Modules/Static/ata.a(interface.o)
 .debug_abbrev  0x000111de      0x258 /root/Chaos/Binaries/DebugGDB/Modules/Static/ata.a(ata.o)
 .debug_abbrev  0x00011436      0x1bc /root/Chaos/Binaries/DebugGDB/Modules/Static/ata.a(ata_drive_class.o)
 .debug_abbrev  0x000115f2      0x1bc /root/Chaos/Binaries/DebugGDB/Modules/Static/ata.a(ata_manager_class.o)
 .debug_abbrev  0x000117ae      0x209 /root/Chaos/Binaries/DebugGDB/Modules/Static/ata.a(block_interface.o)
 .debug_abbrev  0x000119b7      0x260 /root/Chaos/Binaries/DebugGDB/Modules/Static/ata.a(ata-internal.o)
 .debug_abbrev  0x00011c17      0x25a /root/Chaos/Binaries/DebugGDB/Modules/Static/partition.a(interface.o)
 .debug_abbrev  0x00011e71      0x279 /root/Chaos/Binaries/DebugGDB/Modules/Static/partition.a(partition.o)
 .debug_abbrev  0x000120ea      0x1bc /root/Chaos/Binaries/DebugGDB/Modules/Static/partition.a(partition_class.o)
 .debug_abbrev  0x000122a6      0x1bc /root/Chaos/Binaries/DebugGDB/Modules/Static/partition.a(partition_manager_class.o)
 .debug_abbrev  0x00012462      0x234 /root/Chaos/Binaries/DebugGDB/Modules/Static/vfat.a(interface.o)
 .debug_abbrev  0x00012696      0x293 /root/Chaos/Binaries/DebugGDB/Modules/Static/vfat.a(volume.o)
 .debug_abbrev  0x00012929      0x2a8 /root/Chaos/Binaries/DebugGDB/Modules/Static/vfat.a(directory_read_write.o)
 .debug_abbrev  0x00012bd1      0x1e9 /root/Chaos/Binaries/DebugGDB/Modules/Static/vfat.a(common.o)
 .debug_abbrev  0x00012dba      0x25c /root/Chaos/Binaries/DebugGDB/Modules/Static/vfat.a(directory_entry.o)
 .debug_abbrev  0x00013016      0x293 /root/Chaos/Binaries/DebugGDB/Modules/Static/vfat.a(file.o)
 .debug_abbrev  0x000132a9      0x234 /root/Chaos/Binaries/DebugGDB/Modules/Static/vfat.a(low_fat.o)
 .debug_abbrev  0x000134dd      0x220 /root/Chaos/Binaries/DebugGDB/Modules/Static/vfat.a(low_fat12.o)
 .debug_abbrev  0x000136fd      0x220 /root/Chaos/Binaries/DebugGDB/Modules/Static/vfat.a(low_fat16.o)
 .debug_abbrev  0x0001391d      0x220 /root/Chaos/Binaries/DebugGDB/Modules/Static/vfat.a(low_fat32.o)
 .debug_abbrev  0x00013b3d      0x257 /root/Chaos/Binaries/DebugGDB/Modules/Static/vfat.a(read_write.o)

.debug_line     0x00000000    0x69aa9
 *(.debug_line)
 .debug_line    0x00000000      0xc52 ./init.o
 .debug_line    0x00000c52      0x8f3 Hardware/Boot/init.o
 .debug_line    0x00001545      0x9cc Hardware/Boot/multiboot.o
 .debug_line    0x00001f11      0x94c Hardware/Boot/parse.o
 .debug_line    0x0000285d      0xbcd Hardware/SystemDebug/debug.o
 .debug_line    0x0000342a     0x1214 Hardware/SystemDebug/gdb.o
 .debug_line    0x0000463e      0x917 Hardware/Cpu/bugs.o
 .debug_line    0x00004f55      0x92f Hardware/Cpu/halt.o
 .debug_line    0x00005884      0xdf0 Hardware/Cpu/identification.o
 .debug_line    0x00006674      0x9a3 Hardware/Cpu/init.o
 .debug_line    0x00007017      0x933 Hardware/Cpu/lock.o
 .debug_line    0x0000794a      0x9db Hardware/Cpu/speed.o
 .debug_line    0x00008325      0x9f3 Hardware/Irq/irq.o
 .debug_line    0x00008d18      0xa04 Hardware/Irq/pic.o
 .debug_line    0x0000971c      0x880 Hardware/Exception/handlers.o
 .debug_line    0x00009f9c      0xb64 Hardware/Exception/init.o
 .debug_line    0x0000ab00      0xa29 Hardware/Clock/time.o
 .debug_line    0x0000b529      0xa4a Hardware/Dma/controller.o
 .debug_line    0x0000bf73      0x996 Hardware/Dma/dma.o
 .debug_line    0x0000c909      0x984 Hardware/Timer/pit.o
 .debug_line    0x0000d28d      0xa38 Hardware/Timer/timer.o
 .debug_line    0x0000dcc5      0x927 Hardware/PhysicalMemory/allocate.o
 .debug_line    0x0000e5ec      0x8e1 Hardware/PhysicalMemory/check.o
 .debug_line    0x0000eecd      0x8fb Hardware/PhysicalMemory/deallocate.o
 .debug_line    0x0000f7c8      0xa11 Hardware/PhysicalMemory/init.o
 .debug_line    0x000101d9      0x965 Hardware/PhysicalMemory/internal.o
 .debug_line    0x00010b3e      0x8eb Hardware/PhysicalMemory/reallocate.o
 .debug_line    0x00011429      0x8f5 Hardware/PhysicalMemory/reserve.o
 .debug_line    0x00011d1e      0xa1d Hardware/VirtualMemory/allocate.o
 .debug_line    0x0001273b      0xa64 Hardware/VirtualMemory/create.o
 .debug_line    0x0001319f      0x901 Hardware/VirtualMemory/deallocate.o
 .debug_line    0x00013aa0      0x8f3 Hardware/VirtualMemory/destroy.o
 .debug_line    0x00014393      0x947 Hardware/VirtualMemory/init.o
 .debug_line    0x00014cda      0x95d Hardware/VirtualMemory/internal.o
 .debug_line    0x00015637      0xb6a Hardware/VirtualMemory/page.o
 .debug_line    0x000161a1      0x9eb Hardware/VirtualMemory/reserve.o
 .debug_line    0x00016b8c      0x9db Hardware/TaskState/task_state.o
 .debug_line    0x00017567      0x9f6 Hardware/TaskState/tss.o
 .debug_line    0x00017f5d      0x8bc Hardware/IoPort/port.o
 .debug_line    0x00018819      0xe41 Hardware/Elf/elf.o
 .debug_line    0x0001965a      0x95f Hardware/SystemCall/system_call.o
 .debug_line    0x00019fb9      0x933 Repository/./repository.o
 .debug_line    0x0001a8ec      0xac3 Repository/Reference/system.o
 .debug_line    0x0001b3af      0x921 Repository/Descriptions/Method/system.o
 .debug_line    0x0001bcd0      0x927 Repository/Descriptions/Interface/system.o
 .debug_line    0x0001c5f7      0x937 Repository/Descriptions/Class/system.o
 .debug_line    0x0001cf2e      0x91f Repository/Descriptions/Event/system.o
 .debug_line    0x0001d84d      0x912 Repository/Method/init.o
 .debug_line    0x0001e15f      0x8cc Repository/Method/internal.o
 .debug_line    0x0001ea2b      0x88d Repository/Method/parameters_check.o
 .debug_line    0x0001f2b8      0x88b Repository/Method/security_check.o
 .debug_line    0x0001fb43      0xb77 Repository/Method/static.o
 .debug_line    0x000206ba      0xc9c Repository/Method/system.o
 .debug_line    0x00021356      0x888 Repository/Method/transaction.o
 .debug_line    0x00021bde      0x918 Repository/Interface/init.o
 .debug_line    0x000224f6      0x8cf Repository/Interface/internal.o
 .debug_line    0x00022dc5      0x890 Repository/Interface/parameters_check.o
 .debug_line    0x00023655      0x88e Repository/Interface/security_check.o
 .debug_line    0x00023ee3      0xc67 Repository/Interface/static.o
 .debug_line    0x00024b4a      0xd6f Repository/Interface/system.o
 .debug_line    0x000258b9      0x88b Repository/Interface/transaction.o
 .debug_line    0x00026144      0x932 Repository/EventSupplierInterface/init.o
 .debug_line    0x00026a76      0x8dc Repository/EventSupplierInterface/internal.o
 .debug_line    0x00027352      0x89d Repository/EventSupplierInterface/parameters_check.o
 .debug_line    0x00027bef      0x89b Repository/EventSupplierInterface/security_check.o
 .debug_line    0x0002848a      0xbad Repository/EventSupplierInterface/static.o
 .debug_line    0x00029037      0xc38 Repository/EventSupplierInterface/system.o
 .debug_line    0x00029c6f      0x898 Repository/EventSupplierInterface/transaction.o
 .debug_line    0x0002a507     0x1468 Repository/EventSupplier/system.o
 .debug_line    0x0002b96f      0x932 Repository/EventConsumerInterface/init.o
 .debug_line    0x0002c2a1      0x8dc Repository/EventConsumerInterface/internal.o
 .debug_line    0x0002cb7d      0x89d Repository/EventConsumerInterface/parameters_check.o
 .debug_line    0x0002d41a      0x89b Repository/EventConsumerInterface/security_check.o
 .debug_line    0x0002dcb5      0xbad Repository/EventConsumerInterface/static.o
 .debug_line    0x0002e862      0xc40 Repository/EventConsumerInterface/system.o
 .debug_line    0x0002f4a2      0x898 Repository/EventConsumerInterface/transaction.o
 .debug_line    0x0002fd3a      0x8c9 Repository/Class/init.o
 .debug_line    0x00030603      0x8cb Repository/Class/internal.o
 .debug_line    0x00030ece      0x88c Repository/Class/parameters_check.o
 .debug_line    0x0003175a      0x88a Repository/Class/security_check.o
 .debug_line    0x00031fe4      0xcf9 Repository/Class/static.o
 .debug_line    0x00032cdd      0xf89 Repository/Class/system.o
 .debug_line    0x00033c66      0x887 Repository/Class/transaction.o
 .debug_line    0x000344ed      0xb10 Repository/Security/internal.o
 .debug_line    0x00034ffd      0x88f Repository/Security/parameters_check.o
 .debug_line    0x0003588c      0x88d Repository/Security/security_check.o
 .debug_line    0x00036119      0x952 Repository/Security/static.o
 .debug_line    0x00036a6b      0x9ea Repository/Security/system.o
 .debug_line    0x00037455      0x8c5 Repository/Cpu/init.o
 .debug_line    0x00037d1a      0x9bc Repository/Cpu/internal.o
 .debug_line    0x000386d6      0x918 Repository/Cpu/system.o
 .debug_line    0x00038fee      0x950 Repository/Memory/memory.o
 .debug_line    0x0003993e      0xa1d Repository/Memory/slab.o
 .debug_line    0x0003a35b      0xa2f Repository/Memory/system.o
 .debug_line    0x0003ad8a      0xfb1 Repository/Computer/internal.o
 .debug_line    0x0003bd3b      0x939 Repository/Computer/scheduler.o
 .debug_line    0x0003c674      0xbac Repository/Computer/system.o
 .debug_line    0x0003d220      0x8cb Repository/Object/init.o
 .debug_line    0x0003daeb      0x8cc Repository/Object/internal.o
 .debug_line    0x0003e3b7      0x88d Repository/Object/parameters_check.o
 .debug_line    0x0003ec44      0x88b Repository/Object/security_check.o
 .debug_line    0x0003f4cf      0xe49 Repository/Object/static.o
 .debug_line    0x00040318     0x11d6 Repository/Object/system.o
 .debug_line    0x000414ee      0x888 Repository/Object/transaction.o
 .debug_line    0x00041d76      0x8cb Repository/Handle/init.o
 .debug_line    0x00042641      0x8cc Repository/Handle/internal.o
 .debug_line    0x00042f0d      0x88d Repository/Handle/parameters_check.o
 .debug_line    0x0004379a      0x88b Repository/Handle/security_check.o
 .debug_line    0x00044025      0xc45 Repository/Handle/static.o
 .debug_line    0x00044c6a     0x1041 Repository/Handle/system.o
 .debug_line    0x00045cab      0xa9e Repository/EventQueue/system.o
 .debug_line    0x00046749      0x928 Repository/Quality/system.o
 .debug_line    0x00047071      0xa10 Kernel/./init.o
 .debug_line    0x00047a81      0xa5f Kernel/Interfaces/flat_namespace_object_factory.o
 .debug_line    0x000484e0      0xa2b Kernel/Interfaces/flat_namespace_object_factory_interface.o
 .debug_line    0x00048f0b      0xdc2 Kernel/Interfaces/init_init.o
 .debug_line    0x00049ccd      0x9e1 Kernel/Interfaces/init_interface.o
 .debug_line    0x0004a6ae      0xa23 Kernel/Interfaces/irq_supplier_factory_init.o
 .debug_line    0x0004b0d1      0xa2a Kernel/Interfaces/irq_supplier_factory_interface.o
 .debug_line    0x0004bafb      0xe9d Kernel/Interfaces/namespace_init.o
 .debug_line    0x0004c998      0xa28 Kernel/Interfaces/namespace_interface.o
 .debug_line    0x0004d3c0      0xab2 Kernel/Interfaces/storm_module_factory.o
 .debug_line    0x0004de72      0xa18 Kernel/Interfaces/storm_module_factory_interface.o
 .debug_line    0x0004e88a      0xab4 Kernel/Interfaces/storm_program_factory.o
 .debug_line    0x0004f33e      0xa1b Kernel/Interfaces/storm_program_factory_interface.o
 .debug_line    0x0004fd59      0x98b Kernel/Interfaces/timer_interface.o
 .debug_line    0x000506e4      0x9a8 Kernel/Interfaces/timer_interface_init.o
 .debug_line    0x0005108c      0x9a0 Kernel/Events/debug_consumer_init.o
 .debug_line    0x00051a2c      0xb16 Kernel/Events/debug_event_class.o
 .debug_line    0x00052542      0x990 Kernel/Events/debug_supplier_init.o
 .debug_line    0x00052ed2      0xac7 Kernel/Events/irq_event_class.o
 .debug_line    0x00053999      0x99c Kernel/Events/irq_supplier_init.o
 .debug_line    0x00054335      0xab5 Kernel/Classes/flat_namespace_init.o
 .debug_line    0x00054dea      0xa41 Kernel/Classes/flat_namespace_interface.o
 .debug_line    0x0005582b      0x9ae Kernel/Classes/flat_namespace_object.o
 .debug_line    0x000561d9      0x997 Kernel/Classes/storm_module.o
 .debug_line    0x00056b70      0x9a2 Kernel/Classes/storm_module_control_init.o
 .debug_line    0x00057512      0xa03 Kernel/Classes/storm_module_control_interface.o
 .debug_line    0x00057f15      0x99c Kernel/Classes/storm_program.o
 .debug_line    0x000588b1      0x9a6 Kernel/Classes/storm_program_control_init.o
 .debug_line    0x00059257      0x9cd Kernel/Classes/storm_program_control_interface.o
 .debug_line    0x00059c24      0xb09 /root/Chaos/Binaries/DebugGDB/Modules/Static/ata.a(interface.o)
 .debug_line    0x0005a72d      0xe36 /root/Chaos/Binaries/DebugGDB/Modules/Static/ata.a(ata.o)
 .debug_line    0x0005b563      0x8b2 /root/Chaos/Binaries/DebugGDB/Modules/Static/ata.a(ata_drive_class.o)
 .debug_line    0x0005be15      0x894 /root/Chaos/Binaries/DebugGDB/Modules/Static/ata.a(ata_manager_class.o)
 .debug_line    0x0005c6a9      0x9be /root/Chaos/Binaries/DebugGDB/Modules/Static/ata.a(block_interface.o)
 .debug_line    0x0005d067      0xb93 /root/Chaos/Binaries/DebugGDB/Modules/Static/ata.a(ata-internal.o)
 .debug_line    0x0005dbfa      0xc41 /root/Chaos/Binaries/DebugGDB/Modules/Static/partition.a(interface.o)
 .debug_line    0x0005e83b      0xb6a /root/Chaos/Binaries/DebugGDB/Modules/Static/partition.a(partition.o)
 .debug_line    0x0005f3a5      0x8fb /root/Chaos/Binaries/DebugGDB/Modules/Static/partition.a(partition_class.o)
 .debug_line    0x0005fca0      0x8a6 /root/Chaos/Binaries/DebugGDB/Modules/Static/partition.a(partition_manager_class.o)
 .debug_line    0x00060546      0xadf /root/Chaos/Binaries/DebugGDB/Modules/Static/vfat.a(interface.o)
 .debug_line    0x00061025      0xdb7 /root/Chaos/Binaries/DebugGDB/Modules/Static/vfat.a(volume.o)
 .debug_line    0x00061ddc     0x114b /root/Chaos/Binaries/DebugGDB/Modules/Static/vfat.a(directory_read_write.o)
 .debug_line    0x00062f27      0xaf4 /root/Chaos/Binaries/DebugGDB/Modules/Static/vfat.a(common.o)
 .debug_line    0x00063a1b      0xca4 /root/Chaos/Binaries/DebugGDB/Modules/Static/vfat.a(directory_entry.o)
 .debug_line    0x000646bf      0xf59 /root/Chaos/Binaries/DebugGDB/Modules/Static/vfat.a(file.o)
 .debug_line    0x00065618      0xbf3 /root/Chaos/Binaries/DebugGDB/Modules/Static/vfat.a(low_fat.o)
 .debug_line    0x0006620b      0xd8d /root/Chaos/Binaries/DebugGDB/Modules/Static/vfat.a(low_fat12.o)
 .debug_line    0x00066f98      0xd05 /root/Chaos/Binaries/DebugGDB/Modules/Static/vfat.a(low_fat16.o)
 .debug_line    0x00067c9d      0xd05 /root/Chaos/Binaries/DebugGDB/Modules/Static/vfat.a(low_fat32.o)
 .debug_line    0x000689a2     0x1107 /root/Chaos/Binaries/DebugGDB/Modules/Static/vfat.a(read_write.o)

.debug_frame    0x00000000     0xa104
 *(.debug_frame)
 .debug_frame   0x00000000      0x234 ./init.o
 .debug_frame   0x00000234       0x5c Hardware/Boot/init.o
 .debug_frame   0x00000290       0x68 Hardware/Boot/multiboot.o
 .debug_frame   0x000002f8       0x34 Hardware/Boot/parse.o
 .debug_frame   0x0000032c      0x140 Hardware/SystemDebug/debug.o
 .debug_frame   0x0000046c      0x378 Hardware/SystemDebug/gdb.o
 .debug_frame   0x000007e4       0x64 Hardware/Cpu/bugs.o
 .debug_frame   0x00000848       0x54 Hardware/Cpu/halt.o
 .debug_frame   0x0000089c      0x208 Hardware/Cpu/identification.o
 .debug_frame   0x00000aa4       0xe8 Hardware/Cpu/init.o
 .debug_frame   0x00000b8c       0x94 Hardware/Cpu/lock.o
 .debug_frame   0x00000c20       0xa4 Hardware/Cpu/speed.o
 .debug_frame   0x00000cc4      0x10c Hardware/Irq/irq.o
 .debug_frame   0x00000dd0      0x194 Hardware/Irq/pic.o
 .debug_frame   0x00000f64       0x14 Hardware/Exception/handlers.o
 .debug_frame   0x00000f78      0x2e8 Hardware/Exception/init.o
 .debug_frame   0x00001260      0x18c Hardware/Clock/time.o
 .debug_frame   0x000013ec      0x104 Hardware/Dma/controller.o
 .debug_frame   0x000014f0       0x9c Hardware/Dma/dma.o
 .debug_frame   0x0000158c       0xec Hardware/Timer/pit.o
 .debug_frame   0x00001678      0x174 Hardware/Timer/timer.o
 .debug_frame   0x000017ec       0x44 Hardware/PhysicalMemory/allocate.o
 .debug_frame   0x00001830       0x34 Hardware/PhysicalMemory/check.o
 .debug_frame   0x00001864       0x3c Hardware/PhysicalMemory/deallocate.o
 .debug_frame   0x000018a0       0xd8 Hardware/PhysicalMemory/init.o
 .debug_frame   0x00001978       0xac Hardware/PhysicalMemory/internal.o
 .debug_frame   0x00001a24       0x34 Hardware/PhysicalMemory/reallocate.o
 .debug_frame   0x00001a58       0x3c Hardware/PhysicalMemory/reserve.o
 .debug_frame   0x00001a94       0x7c Hardware/VirtualMemory/allocate.o
 .debug_frame   0x00001b10       0xd4 Hardware/VirtualMemory/create.o
 .debug_frame   0x00001be4       0x3c Hardware/VirtualMemory/deallocate.o
 .debug_frame   0x00001c20       0x3c Hardware/VirtualMemory/destroy.o
 .debug_frame   0x00001c5c       0x94 Hardware/VirtualMemory/init.o
 .debug_frame   0x00001cf0       0xa4 Hardware/VirtualMemory/internal.o
 .debug_frame   0x00001d94      0x1a8 Hardware/VirtualMemory/page.o
 .debug_frame   0x00001f3c       0x6c Hardware/VirtualMemory/reserve.o
 .debug_frame   0x00001fa8      0x10c Hardware/TaskState/task_state.o
 .debug_frame   0x000020b4       0xb4 Hardware/TaskState/tss.o
 .debug_frame   0x00002168       0x74 Hardware/IoPort/port.o
 .debug_frame   0x000021dc      0x248 Hardware/Elf/elf.o
 .debug_frame   0x00002424       0xb4 Hardware/SystemCall/system_call.o
 .debug_frame   0x000024d8       0x34 Repository/./repository.o
 .debug_frame   0x0000250c      0x2ac Repository/Reference/system.o
 .debug_frame   0x000027b8       0x5c Repository/Descriptions/Method/system.o
 .debug_frame   0x00002814       0x5c Repository/Descriptions/Interface/system.o
 .debug_frame   0x00002870       0x5c Repository/Descriptions/Class/system.o
 .debug_frame   0x000028cc       0x5c Repository/Descriptions/Event/system.o
 .debug_frame   0x00002928       0x34 Repository/Method/init.o
 .debug_frame   0x0000295c       0x14 Repository/Method/internal.o
 .debug_frame   0x00002970       0x14 Repository/Method/parameters_check.o
 .debug_frame   0x00002984       0x14 Repository/Method/security_check.o
 .debug_frame   0x00002998      0x1d4 Repository/Method/static.o
 .debug_frame   0x00002b6c      0x2a4 Repository/Method/system.o
 .debug_frame   0x00002e10       0x14 Repository/Method/transaction.o
 .debug_frame   0x00002e24       0x34 Repository/Interface/init.o
 .debug_frame   0x00002e58       0x14 Repository/Interface/internal.o
 .debug_frame   0x00002e6c       0x14 Repository/Interface/parameters_check.o
 .debug_frame   0x00002e80       0x14 Repository/Interface/security_check.o
 .debug_frame   0x00002e94      0x25c Repository/Interface/static.o
 .debug_frame   0x000030f0      0x2f8 Repository/Interface/system.o
 .debug_frame   0x000033e8       0x14 Repository/Interface/transaction.o
 .debug_frame   0x000033fc       0x34 Repository/EventSupplierInterface/init.o
 .debug_frame   0x00003430       0x14 Repository/EventSupplierInterface/internal.o
 .debug_frame   0x00003444       0x14 Repository/EventSupplierInterface/parameters_check.o
 .debug_frame   0x00003458       0x14 Repository/EventSupplierInterface/security_check.o
 .debug_frame   0x0000346c      0x21c Repository/EventSupplierInterface/static.o
 .debug_frame   0x00003688      0x2b4 Repository/EventSupplierInterface/system.o
 .debug_frame   0x0000393c       0x14 Repository/EventSupplierInterface/transaction.o
 .debug_frame   0x00003950      0x7bc Repository/EventSupplier/system.o
 .debug_frame   0x0000410c       0x34 Repository/EventConsumerInterface/init.o
 .debug_frame   0x00004140       0x14 Repository/EventConsumerInterface/internal.o
 .debug_frame   0x00004154       0x14 Repository/EventConsumerInterface/parameters_check.o
 .debug_frame   0x00004168       0x14 Repository/EventConsumerInterface/security_check.o
 .debug_frame   0x0000417c      0x21c Repository/EventConsumerInterface/static.o
 .debug_frame   0x00004398      0x2b4 Repository/EventConsumerInterface/system.o
 .debug_frame   0x0000464c       0x14 Repository/EventConsumerInterface/transaction.o
 .debug_frame   0x00004660       0x34 Repository/Class/init.o
 .debug_frame   0x00004694       0x14 Repository/Class/internal.o
 .debug_frame   0x000046a8       0x14 Repository/Class/parameters_check.o
 .debug_frame   0x000046bc       0x14 Repository/Class/security_check.o
 .debug_frame   0x000046d0      0x264 Repository/Class/static.o
 .debug_frame   0x00004934      0x3d8 Repository/Class/system.o
 .debug_frame   0x00004d0c       0x14 Repository/Class/transaction.o
 .debug_frame   0x00004d20      0x1b0 Repository/Security/internal.o
 .debug_frame   0x00004ed0       0x14 Repository/Security/parameters_check.o
 .debug_frame   0x00004ee4       0x14 Repository/Security/security_check.o
 .debug_frame   0x00004ef8       0x64 Repository/Security/static.o
 .debug_frame   0x00004f5c       0xa4 Repository/Security/system.o
 .debug_frame   0x00005000       0x34 Repository/Cpu/init.o
 .debug_frame   0x00005034       0xac Repository/Cpu/internal.o
 .debug_frame   0x000050e0       0x3c Repository/Cpu/system.o
 .debug_frame   0x0000511c       0x5c Repository/Memory/memory.o
 .debug_frame   0x00005178       0x7c Repository/Memory/slab.o
 .debug_frame   0x000051f4       0xd4 Repository/Memory/system.o
 .debug_frame   0x000052c8      0x370 Repository/Computer/internal.o
 .debug_frame   0x00005638       0x84 Repository/Computer/scheduler.o
 .debug_frame   0x000056bc      0x1a0 Repository/Computer/system.o
 .debug_frame   0x0000585c       0x34 Repository/Object/init.o
 .debug_frame   0x00005890       0x14 Repository/Object/internal.o
 .debug_frame   0x000058a4       0x14 Repository/Object/parameters_check.o
 .debug_frame   0x000058b8       0x14 Repository/Object/security_check.o
 .debug_frame   0x000058cc      0x370 Repository/Object/static.o
 .debug_frame   0x00005c3c      0x660 Repository/Object/system.o
 .debug_frame   0x0000629c       0x14 Repository/Object/transaction.o
 .debug_frame   0x000062b0       0x34 Repository/Handle/init.o
 .debug_frame   0x000062e4       0x14 Repository/Handle/internal.o
 .debug_frame   0x000062f8       0x14 Repository/Handle/parameters_check.o
 .debug_frame   0x0000630c       0x14 Repository/Handle/security_check.o
 .debug_frame   0x00006320      0x2c8 Repository/Handle/static.o
 .debug_frame   0x000065e8      0x524 Repository/Handle/system.o
 .debug_frame   0x00006b0c      0x12c Repository/EventQueue/system.o
 .debug_frame   0x00006c38       0x54 Repository/Quality/system.o
 .debug_frame   0x00006c8c       0x50 Kernel/./init.o
 .debug_frame   0x00006cdc       0xfc Kernel/Interfaces/flat_namespace_object_factory.o
 .debug_frame   0x00006dd8       0xe4 Kernel/Interfaces/flat_namespace_object_factory_interface.o
 .debug_frame   0x00006ebc      0x330 Kernel/Interfaces/init_init.o
 .debug_frame   0x000071ec       0xdc Kernel/Interfaces/init_interface.o
 .debug_frame   0x000072c8       0xdc Kernel/Interfaces/irq_supplier_factory_init.o
 .debug_frame   0x000073a4       0xdc Kernel/Interfaces/irq_supplier_factory_interface.o
 .debug_frame   0x00007480      0x2a4 Kernel/Interfaces/namespace_init.o
 .debug_frame   0x00007724      0x104 Kernel/Interfaces/namespace_interface.o
 .debug_frame   0x00007828      0x138 Kernel/Interfaces/storm_module_factory.o
 .debug_frame   0x00007960       0xec Kernel/Interfaces/storm_module_factory_interface.o
 .debug_frame   0x00007a4c      0x130 Kernel/Interfaces/storm_program_factory.o
 .debug_frame   0x00007b7c       0xec Kernel/Interfaces/storm_program_factory_interface.o
 .debug_frame   0x00007c68       0x8c Kernel/Interfaces/timer_interface.o
 .debug_frame   0x00007cf4       0x64 Kernel/Interfaces/timer_interface_init.o
 .debug_frame   0x00007d58       0x64 Kernel/Events/debug_consumer_init.o
 .debug_frame   0x00007dbc      0x154 Kernel/Events/debug_event_class.o
 .debug_frame   0x00007f10       0x3c Kernel/Events/debug_supplier_init.o
 .debug_frame   0x00007f4c      0x15c Kernel/Events/irq_event_class.o
 .debug_frame   0x000080a8       0x3c Kernel/Events/irq_supplier_init.o
 .debug_frame   0x000080e4      0x118 Kernel/Classes/flat_namespace_init.o
 .debug_frame   0x000081fc      0x104 Kernel/Classes/flat_namespace_interface.o
 .debug_frame   0x00008300       0x4c Kernel/Classes/flat_namespace_object.o
 .debug_frame   0x0000834c       0x4c Kernel/Classes/storm_module.o
 .debug_frame   0x00008398       0x9c Kernel/Classes/storm_module_control_init.o
 .debug_frame   0x00008434       0xb4 Kernel/Classes/storm_module_control_interface.o
 .debug_frame   0x000084e8       0x4c Kernel/Classes/storm_program.o
 .debug_frame   0x00008534       0x6c Kernel/Classes/storm_program_control_init.o
 .debug_frame   0x000085a0       0x8c Kernel/Classes/storm_program_control_interface.o
 .debug_frame   0x0000862c      0x154 /root/Chaos/Binaries/DebugGDB/Modules/Static/ata.a(interface.o)
 .debug_frame   0x00008780      0x194 /root/Chaos/Binaries/DebugGDB/Modules/Static/ata.a(ata.o)
 .debug_frame   0x00008914       0x44 /root/Chaos/Binaries/DebugGDB/Modules/Static/ata.a(ata_drive_class.o)
 .debug_frame   0x00008958       0x44 /root/Chaos/Binaries/DebugGDB/Modules/Static/ata.a(ata_manager_class.o)
 .debug_frame   0x0000899c       0xb4 /root/Chaos/Binaries/DebugGDB/Modules/Static/ata.a(block_interface.o)
 .debug_frame   0x00008a50       0xf4 /root/Chaos/Binaries/DebugGDB/Modules/Static/ata.a(ata-internal.o)
 .debug_frame   0x00008b44      0x204 /root/Chaos/Binaries/DebugGDB/Modules/Static/partition.a(interface.o)
 .debug_frame   0x00008d48       0xdc /root/Chaos/Binaries/DebugGDB/Modules/Static/partition.a(partition.o)
 .debug_frame   0x00008e24       0x44 /root/Chaos/Binaries/DebugGDB/Modules/Static/partition.a(partition_class.o)
 .debug_frame   0x00008e68       0x44 /root/Chaos/Binaries/DebugGDB/Modules/Static/partition.a(partition_manager_class.o)
 .debug_frame   0x00008eac       0xcc /root/Chaos/Binaries/DebugGDB/Modules/Static/vfat.a(interface.o)
 .debug_frame   0x00008f78      0x1e0 /root/Chaos/Binaries/DebugGDB/Modules/Static/vfat.a(volume.o)
 .debug_frame   0x00009158      0x260 /root/Chaos/Binaries/DebugGDB/Modules/Static/vfat.a(directory_read_write.o)
 .debug_frame   0x000093b8       0xec /root/Chaos/Binaries/DebugGDB/Modules/Static/vfat.a(common.o)
 .debug_frame   0x000094a4      0x1a0 /root/Chaos/Binaries/DebugGDB/Modules/Static/vfat.a(directory_entry.o)
 .debug_frame   0x00009644      0x398 /root/Chaos/Binaries/DebugGDB/Modules/Static/vfat.a(file.o)
 .debug_frame   0x000099dc      0x154 /root/Chaos/Binaries/DebugGDB/Modules/Static/vfat.a(low_fat.o)
 .debug_frame   0x00009b30      0x154 /root/Chaos/Binaries/DebugGDB/Modules/Static/vfat.a(low_fat12.o)
 .debug_frame   0x00009c84      0x154 /root/Chaos/Binaries/DebugGDB/Modules/Static/vfat.a(low_fat16.o)
 .debug_frame   0x00009dd8      0x154 /root/Chaos/Binaries/DebugGDB/Modules/Static/vfat.a(low_fat32.o)
 .debug_frame   0x00009f2c      0x1d8 /root/Chaos/Binaries/DebugGDB/Modules/Static/vfat.a(read_write.o)

.debug_str
 *(.debug_str)

.debug_loc
 *(.debug_loc)

.debug_macinfo
 *(.debug_macinfo)

.debug_weaknames
 *(.debug_weaknames)

.debug_funcnames
 *(.debug_funcnames)

.debug_typenames
 *(.debug_typenames)

.debug_varnames
 *(.debug_varnames)
OUTPUT(/root/Chaos/Binaries/DebugGDB/Kernel/storm elf32-i386)
