
ata.so:     file format elf32-i386

Disassembly of section .text:

00001be0 <ata_probe2>:
    1be0:	55                   	push   %ebp
    1be1:	57                   	push   %edi
    1be2:	56                   	push   %esi
    1be3:	53                   	push   %ebx
    1be4:	81 ec 2c 03 00 00    	sub    $0x32c,%esp
    1bea:	8b b4 24 40 03 00 00 	mov    0x340(%esp,1),%esi
    1bf1:	8d 1c 76             	lea    (%esi,%esi,2),%ebx
    1bf4:	8d 34 9d 00 00 00 00 	lea    0x0(,%ebx,4),%esi
    1bfb:	0f b7 96 0a 00 00 00 	movzwl 0xa(%esi),%edx
    1c02:	89 d1                	mov    %edx,%ecx
    1c04:	83 c1 02             	add    $0x2,%ecx
    1c07:	89 54 24 0c          	mov    %edx,0xc(%esp,1)
    1c0b:	0f b7 d1             	movzwl %cx,%edx
    1c0e:	ec                   	in     (%dx),%al
    1c0f:	0f b6 d8             	movzbl %al,%ebx
    1c12:	8b 44 24 0c          	mov    0xc(%esp,1),%eax
    1c16:	83 c0 03             	add    $0x3,%eax
    1c19:	0f b7 d0             	movzwl %ax,%edx
    1c1c:	ec                   	in     (%dx),%al
    1c1d:	4b                   	dec    %ebx
    1c1e:	0f b6 c8             	movzbl %al,%ecx
    1c21:	74 14                	je     1c37 <ata_probe2+0x57>
    1c23:	31 ff                	xor    %edi,%edi
    1c25:	66 89 be 0a 00 00 00 	mov    %di,0xa(%esi)
    1c2c:	81 c4 2c 03 00 00    	add    $0x32c,%esp
    1c32:	5b                   	pop    %ebx
    1c33:	5e                   	pop    %esi
    1c34:	5f                   	pop    %edi
    1c35:	5d                   	pop    %ebp
    1c36:	c3                   	ret    
    1c37:	49                   	dec    %ecx
    1c38:	75 e9                	jne    1c23 <ata_probe2+0x43>
    1c3a:	8b 6c 24 0c          	mov    0xc(%esp,1),%ebp
    1c3e:	83 c5 04             	add    $0x4,%ebp
    1c41:	0f b7 d5             	movzwl %bp,%edx
    1c44:	ec                   	in     (%dx),%al
    1c45:	8b 4c 24 0c          	mov    0xc(%esp,1),%ecx
    1c49:	0f b6 e8             	movzbl %al,%ebp
    1c4c:	83 c1 05             	add    $0x5,%ecx
    1c4f:	0f b7 d1             	movzwl %cx,%edx
    1c52:	ec                   	in     (%dx),%al
    1c53:	0f b6 c8             	movzbl %al,%ecx
    1c56:	8b 44 24 0c          	mov    0xc(%esp,1),%eax
    1c5a:	83 c0 07             	add    $0x7,%eax
    1c5d:	0f b7 d0             	movzwl %ax,%edx
    1c60:	ec                   	in     (%dx),%al
    1c61:	0f b6 d8             	movzbl %al,%ebx
    1c64:	31 c0                	xor    %eax,%eax
    1c66:	83 fd 14             	cmp    $0x14,%ebp
    1c69:	a3 00 00 00 00       	mov    %eax,0x0
    1c6e:	0f 84 0e 02 00 00    	je     1e82 <ata_probe2+0x2a2>
    1c74:	85 ed                	test   %ebp,%ebp
    1c76:	74 18                	je     1c90 <ata_probe2+0xb0>
    1c78:	8b 84 24 40 03 00 00 	mov    0x340(%esp,1),%eax
    1c7f:	31 d2                	xor    %edx,%edx
    1c81:	8d 3c 40             	lea    (%eax,%eax,2),%edi
    1c84:	66 89 14 bd 0a 00 00 	mov    %dx,0xa(,%edi,4)
    1c8b:	00 
    1c8c:	eb 9e                	jmp    1c2c <ata_probe2+0x4c>
    1c8e:	89 f6                	mov    %esi,%esi
    1c90:	85 c9                	test   %ecx,%ecx
    1c92:	75 e4                	jne    1c78 <ata_probe2+0x98>
    1c94:	85 db                	test   %ebx,%ebx
    1c96:	74 e0                	je     1c78 <ata_probe2+0x98>
    1c98:	8b 74 24 0c          	mov    0xc(%esp,1),%esi
    1c9c:	bd ec 00 00 00       	mov    $0xec,%ebp
    1ca1:	b0 ec                	mov    $0xec,%al
    1ca3:	83 c6 07             	add    $0x7,%esi
    1ca6:	0f b7 d6             	movzwl %si,%edx
    1ca9:	ee                   	out    %al,(%dx)
    1caa:	bb 30 75 00 00       	mov    $0x7530,%ebx
    1caf:	a1 0c 00 00 00       	mov    0xc,%eax
    1cb4:	83 ec 0c             	sub    $0xc,%esp
    1cb7:	be 00 c0 00 00       	mov    $0xc000,%esi
    1cbc:	6a 01                	push   $0x1
    1cbe:	ff 10                	call   *(%eax)
    1cc0:	83 c4 10             	add    $0x10,%esp
    1cc3:	85 db                	test   %ebx,%ebx
    1cc5:	0f 84 95 01 00 00    	je     1e60 <ata_probe2+0x280>
    1ccb:	90                   	nop    
    1ccc:	8d 74 26 00          	lea    0x0(%esi,1),%esi
    1cd0:	0f b7 05 00 00 00 00 	movzwl 0x0,%eax
    1cd7:	89 c7                	mov    %eax,%edi
    1cd9:	21 f7                	and    %esi,%edi
    1cdb:	0f 84 86 01 00 00    	je     1e67 <ata_probe2+0x287>
    1ce1:	85 db                	test   %ebx,%ebx
    1ce3:	0f 84 77 01 00 00    	je     1e60 <ata_probe2+0x280>
    1ce9:	89 f9                	mov    %edi,%ecx
    1ceb:	f7 d1                	not    %ecx
    1ced:	89 f8                	mov    %edi,%eax
    1cef:	21 0d 00 00 00 00    	and    %ecx,0x0
    1cf5:	85 c0                	test   %eax,%eax
    1cf7:	0f 84 13 01 00 00    	je     1e10 <ata_probe2+0x230>
    1cfd:	8b 44 24 0c          	mov    0xc(%esp,1),%eax
    1d01:	83 c0 07             	add    $0x7,%eax
    1d04:	0f b7 d0             	movzwl %ax,%edx
    1d07:	ec                   	in     (%dx),%al
    1d08:	b9 02 01 00 00       	mov    $0x102,%ecx
    1d0d:	8d bc 24 10 01 00 00 	lea    0x110(%esp,1),%edi
    1d14:	8b 54 24 0c          	mov    0xc(%esp,1),%edx
    1d18:	fc                   	cld    
    1d19:	f3 66 6d             	repz insw (%dx),%es:(%edi)
    1d1c:	81 fd a1 00 00 00    	cmp    $0xa1,%ebp
    1d22:	0f 84 d8 00 00 00    	je     1e00 <ata_probe2+0x220>
    1d28:	31 db                	xor    %ebx,%ebx
    1d2a:	8d b6 00 00 00 00    	lea    0x0(%esi),%esi
    1d30:	83 c3 02             	add    $0x2,%ebx
    1d33:	83 fb 27             	cmp    $0x27,%ebx
    1d36:	76 f8                	jbe    1d30 <ata_probe2+0x150>
    1d38:	8b ac 24 40 03 00 00 	mov    0x340(%esp,1),%ebp
    1d3f:	8b 84 24 1c 01 00 00 	mov    0x11c(%esp,1),%eax
    1d46:	8d 4c 6d 00          	lea    0x0(%ebp,%ebp,2),%ecx
    1d4a:	8d 14 8d 00 00 00 00 	lea    0x0(,%ecx,4),%edx
    1d51:	66 89 82 04 00 00 00 	mov    %ax,0x4(%edx)
    1d58:	0f b7 84 24 16 01 00 	movzwl 0x116(%esp,1),%eax
    1d5f:	00 
    1d60:	66 89 82 06 00 00 00 	mov    %ax,0x6(%edx)
    1d67:	0f b7 84 24 12 01 00 	movzwl 0x112(%esp,1),%eax
    1d6e:	00 
    1d6f:	66 89 82 08 00 00 00 	mov    %ax,0x8(%edx)
    1d76:	0f b6 84 24 73 01 00 	movzbl 0x173(%esp,1),%eax
    1d7d:	00 
    1d7e:	a9 01 00 00 00       	test   $0x1,%eax
    1d83:	74 72                	je     1df7 <ata_probe2+0x217>
    1d85:	b9 00 00 00 00       	mov    $0x0,%ecx
    1d8a:	0f b7 04 0a          	movzwl (%edx,%ecx,1),%eax
    1d8e:	83 c8 04             	or     $0x4,%eax
    1d91:	66 89 04 0a          	mov    %ax,(%edx,%ecx,1)
    1d95:	0f b6 84 24 73 01 00 	movzbl 0x173(%esp,1),%eax
    1d9c:	00 
    1d9d:	83 e0 02             	and    $0x2,%eax
    1da0:	74 0b                	je     1dad <ata_probe2+0x1cd>
    1da2:	0f b7 04 0a          	movzwl (%edx,%ecx,1),%eax
    1da6:	83 c8 02             	or     $0x2,%eax
    1da9:	66 89 04 0a          	mov    %ax,(%edx,%ecx,1)
    1dad:	f6 84 24 89 01 00 00 	testb  $0x1,0x189(%esp,1)
    1db4:	01 
    1db5:	74 39                	je     1df0 <ata_probe2+0x210>
    1db7:	80 bc 24 88 01 00 00 	cmpb   $0x0,0x188(%esp,1)
    1dbe:	00 
    1dbf:	74 2f                	je     1df0 <ata_probe2+0x210>
    1dc1:	0f b6 9c 24 6e 01 00 	movzbl 0x16e(%esp,1),%ebx
    1dc8:	00 
    1dc9:	8b b4 24 40 03 00 00 	mov    0x340(%esp,1),%esi
    1dd0:	83 ec 08             	sub    $0x8,%esp
    1dd3:	8d 14 76             	lea    (%esi,%esi,2),%edx
    1dd6:	88 5c 91 03          	mov    %bl,0x3(%ecx,%edx,4)
    1dda:	56                   	push   %esi
    1ddb:	56                   	push   %esi
    1ddc:	e8 fc ff ff ff       	call   1ddd <ata_probe2+0x1fd>
    1de1:	83 c4 10             	add    $0x10,%esp
    1de4:	e9 43 fe ff ff       	jmp    1c2c <ata_probe2+0x4c>
    1de9:	8d b4 26 00 00 00 00 	lea    0x0(%esi,1),%esi
    1df0:	bb 01 00 00 00       	mov    $0x1,%ebx
    1df5:	eb d2                	jmp    1dc9 <ata_probe2+0x1e9>
    1df7:	b9 00 00 00 00       	mov    $0x0,%ecx
    1dfc:	eb 9f                	jmp    1d9d <ata_probe2+0x1bd>
    1dfe:	89 f6                	mov    %esi,%esi
    1e00:	0f b7 84 24 46 01 00 	movzwl 0x146(%esp,1),%eax
    1e07:	00 
    1e08:	e9 1b ff ff ff       	jmp    1d28 <ata_probe2+0x148>
    1e0d:	8d 76 00             	lea    0x0(%esi),%esi
    1e10:	83 ec 08             	sub    $0x8,%esp
    1e13:	31 db                	xor    %ebx,%ebx
    1e15:	68 20 4c 00 00       	push   $0x4c20
    1e1a:	8d 7c 24 1c          	lea    0x1c(%esp,1),%edi
    1e1e:	57                   	push   %edi
    1e1f:	e8 fc ff ff ff       	call   1e20 <ata_probe2+0x240>
    1e24:	a1 0c 00 00 00       	mov    0xc,%eax
    1e29:	89 3c 24             	mov    %edi,(%esp,1)
    1e2c:	68 15 01 00 00       	push   $0x115
    1e31:	68 33 4c 00 00       	push   $0x4c33
    1e36:	68 3e 4c 00 00       	push   $0x4c3e
    1e3b:	68 ff 00 00 00       	push   $0xff
    1e40:	ff 10                	call   *(%eax)
    1e42:	83 c4 20             	add    $0x20,%esp
    1e45:	8b b4 24 40 03 00 00 	mov    0x340(%esp,1),%esi
    1e4c:	8d 2c 76             	lea    (%esi,%esi,2),%ebp
    1e4f:	66 89 1c ad 0a 00 00 	mov    %bx,0xa(,%ebp,4)
    1e56:	00 
    1e57:	e9 d0 fd ff ff       	jmp    1c2c <ata_probe2+0x4c>
    1e5c:	8d 74 26 00          	lea    0x0(%esi,1),%esi
    1e60:	31 c0                	xor    %eax,%eax
    1e62:	e9 8e fe ff ff       	jmp    1cf5 <ata_probe2+0x115>
    1e67:	a1 0c 00 00 00       	mov    0xc,%eax
    1e6c:	83 ec 0c             	sub    $0xc,%esp
    1e6f:	6a 01                	push   $0x1
    1e71:	ff 10                	call   *(%eax)
    1e73:	83 c4 10             	add    $0x10,%esp
    1e76:	4b                   	dec    %ebx
    1e77:	0f 85 53 fe ff ff    	jne    1cd0 <ata_probe2+0xf0>
    1e7d:	e9 5f fe ff ff       	jmp    1ce1 <ata_probe2+0x101>
    1e82:	81 f9 eb 00 00 00    	cmp    $0xeb,%ecx
    1e88:	0f 85 e6 fd ff ff    	jne    1c74 <ata_probe2+0x94>
    1e8e:	bb 00 00 00 00       	mov    $0x0,%ebx
    1e93:	bd a1 00 00 00       	mov    $0xa1,%ebp
    1e98:	0f b7 04 1e          	movzwl (%esi,%ebx,1),%eax
    1e9c:	83 c8 01             	or     $0x1,%eax
    1e9f:	66 89 04 1e          	mov    %ax,(%esi,%ebx,1)
    1ea3:	b0 a1                	mov    $0xa1,%al
    1ea5:	ee                   	out    %al,(%dx)
    1ea6:	bb 03 00 00 00       	mov    $0x3,%ebx
    1eab:	e9 ff fd ff ff       	jmp    1caf <ata_probe2+0xcf>

00001eb0 <ata_select>:
    1eb0:	57                   	push   %edi
    1eb1:	56                   	push   %esi
    1eb2:	53                   	push   %ebx
    1eb3:	81 ec 00 01 00 00    	sub    $0x100,%esp
    1eb9:	8b bc 24 10 01 00 00 	mov    0x110(%esp,1),%edi
    1ec0:	8b 8c 24 14 01 00 00 	mov    0x114(%esp,1),%ecx
    1ec7:	8d 5f 06             	lea    0x6(%edi),%ebx
    1eca:	0f b7 d3             	movzwl %bx,%edx
    1ecd:	ec                   	in     (%dx),%al
    1ece:	88 c3                	mov    %al,%bl
    1ed0:	89 ce                	mov    %ecx,%esi
    1ed2:	31 de                	xor    %ebx,%esi
    1ed4:	83 e6 10             	and    $0x10,%esi
    1ed7:	74 57                	je     1f30 <ata_select+0x80>
    1ed9:	88 c8                	mov    %cl,%al
    1edb:	ee                   	out    %al,(%dx)
    1edc:	be 1e 00 00 00       	mov    $0x1e,%esi
    1ee1:	a1 0c 00 00 00       	mov    0xc,%eax
    1ee6:	83 ec 0c             	sub    $0xc,%esp
    1ee9:	6a 01                	push   $0x1
    1eeb:	ff 10                	call   *(%eax)
    1eed:	8d 57 07             	lea    0x7(%edi),%edx
    1ef0:	0f b7 da             	movzwl %dx,%ebx
    1ef3:	83 c4 10             	add    $0x10,%esp
    1ef6:	8d 76 00             	lea    0x0(%esi),%esi
    1ef9:	8d bc 27 00 00 00 00 	lea    0x0(%edi,1),%edi
    1f00:	89 da                	mov    %ebx,%edx
    1f02:	ec                   	in     (%dx),%al
    1f03:	84 c0                	test   %al,%al
    1f05:	79 12                	jns    1f19 <ata_select+0x69>
    1f07:	a1 0c 00 00 00       	mov    0xc,%eax
    1f0c:	83 ec 0c             	sub    $0xc,%esp
    1f0f:	6a 01                	push   $0x1
    1f11:	ff 10                	call   *(%eax)
    1f13:	83 c4 10             	add    $0x10,%esp
    1f16:	4e                   	dec    %esi
    1f17:	75 e7                	jne    1f00 <ata_select+0x50>
    1f19:	85 f6                	test   %esi,%esi
    1f1b:	0f 94 c1             	sete   %cl
    1f1e:	0f b6 c1             	movzbl %cl,%eax
    1f21:	81 c4 00 01 00 00    	add    $0x100,%esp
    1f27:	5b                   	pop    %ebx
    1f28:	5e                   	pop    %esi
    1f29:	5f                   	pop    %edi
    1f2a:	c3                   	ret    
    1f2b:	90                   	nop    
    1f2c:	8d 74 26 00          	lea    0x0(%esi,1),%esi
    1f30:	31 c0                	xor    %eax,%eax
    1f32:	eb ed                	jmp    1f21 <ata_select+0x71>
    1f34:	8d b6 00 00 00 00    	lea    0x0(%esi),%esi
    1f3a:	8d bf 00 00 00 00    	lea    0x0(%edi),%edi

00001f40 <ata_probe>:
    1f40:	55                   	push   %ebp
    1f41:	b8 f0 01 00 00       	mov    $0x1f0,%eax
    1f46:	b9 f0 01 00 00       	mov    $0x1f0,%ecx
    1f4b:	57                   	push   %edi
    1f4c:	31 ed                	xor    %ebp,%ebp
    1f4e:	56                   	push   %esi
    1f4f:	53                   	push   %ebx
    1f50:	81 ec 1c 01 00 00    	sub    $0x11c,%esp
    1f56:	66 a3 0a 00 00 00    	mov    %ax,0xa
    1f5c:	b8 70 01 00 00       	mov    $0x170,%eax
    1f61:	66 a3 2e 00 00 00    	mov    %ax,0x2e
    1f67:	c6 05 1a 00 00 00 a0 	movb   $0xa0,0x1a
    1f6e:	c6 05 02 00 00 00 a0 	movb   $0xa0,0x2
    1f75:	c6 05 26 00 00 00 b0 	movb   $0xb0,0x26
    1f7c:	c6 05 0e 00 00 00 b0 	movb   $0xb0,0xe
    1f83:	66 89 0d 16 00 00 00 	mov    %cx,0x16
    1f8a:	66 a3 22 00 00 00    	mov    %ax,0x22
    1f90:	c7 44 24 0c 00 00 00 	movl   $0x0,0xc(%esp,1)
    1f97:	00 
    1f98:	90                   	nop    
    1f99:	8d b4 26 00 00 00 00 	lea    0x0(%esi,1),%esi
    1fa0:	0f b7 bd 0a 00 00 00 	movzwl 0xa(%ebp),%edi
    1fa7:	83 ec 08             	sub    $0x8,%esp
    1faa:	68 a0 00 00 00       	push   $0xa0
    1faf:	57                   	push   %edi
    1fb0:	e8 fc ff ff ff       	call   1fb1 <ata_probe+0x71>
    1fb5:	83 c4 10             	add    $0x10,%esp
    1fb8:	85 c0                	test   %eax,%eax
    1fba:	74 44                	je     2000 <ata_probe+0xc0>
    1fbc:	83 ec 08             	sub    $0x8,%esp
    1fbf:	68 b0 00 00 00       	push   $0xb0
    1fc4:	57                   	push   %edi
    1fc5:	e8 fc ff ff ff       	call   1fc6 <ata_probe+0x86>
    1fca:	83 c4 10             	add    $0x10,%esp
    1fcd:	85 c0                	test   %eax,%eax
    1fcf:	74 2f                	je     2000 <ata_probe+0xc0>
    1fd1:	31 db                	xor    %ebx,%ebx
    1fd3:	31 d2                	xor    %edx,%edx
    1fd5:	66 89 9d 0a 00 00 00 	mov    %bx,0xa(%ebp)
    1fdc:	66 89 95 16 00 00 00 	mov    %dx,0x16(%ebp)
    1fe3:	83 44 24 0c 02       	addl   $0x2,0xc(%esp,1)
    1fe8:	83 c5 18             	add    $0x18,%ebp
    1feb:	83 7c 24 0c 03       	cmpl   $0x3,0xc(%esp,1)
    1ff0:	76 ae                	jbe    1fa0 <ata_probe+0x60>
    1ff2:	81 c4 1c 01 00 00    	add    $0x11c,%esp
    1ff8:	5b                   	pop    %ebx
    1ff9:	5e                   	pop    %esi
    1ffa:	5f                   	pop    %edi
    1ffb:	5d                   	pop    %ebp
    1ffc:	c3                   	ret    
    1ffd:	8d 76 00             	lea    0x0(%esi),%esi
    2000:	8d 57 02             	lea    0x2(%edi),%edx
    2003:	0f b7 f2             	movzwl %dx,%esi
    2006:	b0 55                	mov    $0x55,%al
    2008:	89 f2                	mov    %esi,%edx
    200a:	ee                   	out    %al,(%dx)
    200b:	8d 47 03             	lea    0x3(%edi),%eax
    200e:	0f b7 d8             	movzwl %ax,%ebx
    2011:	b0 aa                	mov    $0xaa,%al
    2013:	89 da                	mov    %ebx,%edx
    2015:	ee                   	out    %al,(%dx)
    2016:	89 f2                	mov    %esi,%edx
    2018:	ec                   	in     (%dx),%al
    2019:	0f b6 f0             	movzbl %al,%esi
    201c:	89 da                	mov    %ebx,%edx
    201e:	ec                   	in     (%dx),%al
    201f:	83 fe 55             	cmp    $0x55,%esi
    2022:	0f b6 c0             	movzbl %al,%eax
    2025:	74 19                	je     2040 <ata_probe+0x100>
    2027:	31 db                	xor    %ebx,%ebx
    2029:	31 ff                	xor    %edi,%edi
    202b:	66 89 9d 0a 00 00 00 	mov    %bx,0xa(%ebp)
    2032:	66 89 bd 16 00 00 00 	mov    %di,0x16(%ebp)
    2039:	eb a8                	jmp    1fe3 <ata_probe+0xa3>
    203b:	90                   	nop    
    203c:	8d 74 26 00          	lea    0x0(%esi,1),%esi
    2040:	3d aa 00 00 00       	cmp    $0xaa,%eax
    2045:	75 e0                	jne    2027 <ata_probe+0xe7>
    2047:	8d 87 06 02 00 00    	lea    0x206(%edi),%eax
    204d:	0f b7 f0             	movzwl %ax,%esi
    2050:	b0 0e                	mov    $0xe,%al
    2052:	89 f2                	mov    %esi,%edx
    2054:	ee                   	out    %al,(%dx)
    2055:	a1 0c 00 00 00       	mov    0xc,%eax
    205a:	83 ec 0c             	sub    $0xc,%esp
    205d:	6a 01                	push   $0x1
    205f:	ff 10                	call   *(%eax)
    2061:	89 f2                	mov    %esi,%edx
    2063:	b0 08                	mov    $0x8,%al
    2065:	ee                   	out    %al,(%dx)
    2066:	be 88 13 00 00       	mov    $0x1388,%esi
    206b:	a1 0c 00 00 00       	mov    0xc,%eax
    2070:	c7 04 24 01 00 00 00 	movl   $0x1,(%esp,1)
    2077:	ff 10                	call   *(%eax)
    2079:	8d 4f 07             	lea    0x7(%edi),%ecx
    207c:	0f b7 d9             	movzwl %cx,%ebx
    207f:	83 c4 10             	add    $0x10,%esp
    2082:	8d b4 26 00 00 00 00 	lea    0x0(%esi,1),%esi
    2089:	8d bc 27 00 00 00 00 	lea    0x0(%edi,1),%edi
    2090:	89 da                	mov    %ebx,%edx
    2092:	ec                   	in     (%dx),%al
    2093:	84 c0                	test   %al,%al
    2095:	79 12                	jns    20a9 <ata_probe+0x169>
    2097:	a1 0c 00 00 00       	mov    0xc,%eax
    209c:	83 ec 0c             	sub    $0xc,%esp
    209f:	6a 01                	push   $0x1
    20a1:	ff 10                	call   *(%eax)
    20a3:	83 c4 10             	add    $0x10,%esp
    20a6:	4e                   	dec    %esi
    20a7:	75 e7                	jne    2090 <ata_probe+0x150>
    20a9:	85 f6                	test   %esi,%esi
    20ab:	74 69                	je     2116 <ata_probe+0x1d6>
    20ad:	83 ec 08             	sub    $0x8,%esp
    20b0:	68 a0 00 00 00       	push   $0xa0
    20b5:	57                   	push   %edi
    20b6:	e8 fc ff ff ff       	call   20b7 <ata_probe+0x177>
    20bb:	5e                   	pop    %esi
    20bc:	8b 4c 24 18          	mov    0x18(%esp,1),%ecx
    20c0:	51                   	push   %ecx
    20c1:	e8 fc ff ff ff       	call   20c2 <ata_probe+0x182>
    20c6:	5a                   	pop    %edx
    20c7:	59                   	pop    %ecx
    20c8:	68 b0 00 00 00       	push   $0xb0
    20cd:	57                   	push   %edi
    20ce:	e8 fc ff ff ff       	call   20cf <ata_probe+0x18f>
    20d3:	83 c4 10             	add    $0x10,%esp
    20d6:	85 c0                	test   %eax,%eax
    20d8:	74 26                	je     2100 <ata_probe+0x1c0>
    20da:	83 ec 08             	sub    $0x8,%esp
    20dd:	31 db                	xor    %ebx,%ebx
    20df:	68 a0 00 00 00       	push   $0xa0
    20e4:	57                   	push   %edi
    20e5:	e8 fc ff ff ff       	call   20e6 <ata_probe+0x1a6>
    20ea:	66 89 9d 16 00 00 00 	mov    %bx,0x16(%ebp)
    20f1:	83 c4 10             	add    $0x10,%esp
    20f4:	e9 ea fe ff ff       	jmp    1fe3 <ata_probe+0xa3>
    20f9:	8d b4 26 00 00 00 00 	lea    0x0(%esi,1),%esi
    2100:	83 ec 0c             	sub    $0xc,%esp
    2103:	8b 44 24 18          	mov    0x18(%esp,1),%eax
    2107:	40                   	inc    %eax
    2108:	50                   	push   %eax
    2109:	e8 fc ff ff ff       	call   210a <ata_probe+0x1ca>
    210e:	83 c4 10             	add    $0x10,%esp
    2111:	e9 cd fe ff ff       	jmp    1fe3 <ata_probe+0xa3>
    2116:	31 ff                	xor    %edi,%edi
    2118:	31 d2                	xor    %edx,%edx
    211a:	66 89 bd 0a 00 00 00 	mov    %di,0xa(%ebp)
    2121:	e9 b6 fe ff ff       	jmp    1fdc <ata_probe+0x9c>
    2126:	8d 76 00             	lea    0x0(%esi),%esi
    2129:	8d bc 27 00 00 00 00 	lea    0x0(%edi,1),%edi

00002130 <ata_cmd2>:
    2130:	57                   	push   %edi
    2131:	56                   	push   %esi
    2132:	53                   	push   %ebx
    2133:	81 ec 10 01 00 00    	sub    $0x110,%esp
    2139:	8b bc 24 20 01 00 00 	mov    0x120(%esp,1),%edi
    2140:	0f b6 94 24 24 01 00 	movzbl 0x124(%esp,1),%edx
    2147:	00 
    2148:	0f b6 84 24 28 01 00 	movzbl 0x128(%esp,1),%eax
    214f:	00 
    2150:	88 54 24 0f          	mov    %dl,0xf(%esp,1)
    2154:	88 44 24 0e          	mov    %al,0xe(%esp,1)
    2158:	0f b6 4f 08          	movzbl 0x8(%edi),%ecx
    215c:	8d 14 49             	lea    (%ecx,%ecx,2),%edx
    215f:	8d 1c 95 00 00 00 00 	lea    0x0(,%edx,4),%ebx
    2166:	8b 17                	mov    (%edi),%edx
    2168:	f6 83 00 00 00 00 02 	testb  $0x2,0x0(%ebx)
    216f:	0f b7 b3 0a 00 00 00 	movzwl 0xa(%ebx),%esi
    2176:	0f 84 84 00 00 00    	je     2200 <ata_cmd2+0xd0>
    217c:	88 54 24 0d          	mov    %dl,0xd(%esp,1)
    2180:	c1 ea 08             	shr    $0x8,%edx
    2183:	89 d3                	mov    %edx,%ebx
    2185:	c1 eb 10             	shr    $0x10,%ebx
    2188:	80 e3 0f             	and    $0xf,%bl
    218b:	0f b7 ca             	movzwl %dx,%ecx
    218e:	80 cb 40             	or     $0x40,%bl
    2191:	0f b6 47 08          	movzbl 0x8(%edi),%eax
    2195:	8d 14 40             	lea    (%eax,%eax,2),%edx
    2198:	8d 46 02             	lea    0x2(%esi),%eax
    219b:	0a 1c 95 02 00 00 00 	or     0x2(,%edx,4),%bl
    21a2:	0f b7 d0             	movzwl %ax,%edx
    21a5:	0f b6 44 24 0f       	movzbl 0xf(%esp,1),%eax
    21aa:	ee                   	out    %al,(%dx)
    21ab:	0f b6 44 24 0d       	movzbl 0xd(%esp,1),%eax
    21b0:	8d 7e 03             	lea    0x3(%esi),%edi
    21b3:	0f b7 d7             	movzwl %di,%edx
    21b6:	ee                   	out    %al,(%dx)
    21b7:	8d 46 04             	lea    0x4(%esi),%eax
    21ba:	0f b7 d0             	movzwl %ax,%edx
    21bd:	88 c8                	mov    %cl,%al
    21bf:	ee                   	out    %al,(%dx)
    21c0:	8d 7e 05             	lea    0x5(%esi),%edi
    21c3:	89 c8                	mov    %ecx,%eax
    21c5:	0f b7 d7             	movzwl %di,%edx
    21c8:	c1 e8 08             	shr    $0x8,%eax
    21cb:	ee                   	out    %al,(%dx)
    21cc:	8d 46 06             	lea    0x6(%esi),%eax
    21cf:	0f b7 d0             	movzwl %ax,%edx
    21d2:	88 d8                	mov    %bl,%al
    21d4:	ee                   	out    %al,(%dx)
    21d5:	0f b6 44 24 0e       	movzbl 0xe(%esp,1),%eax
    21da:	8d 5e 07             	lea    0x7(%esi),%ebx
    21dd:	31 ff                	xor    %edi,%edi
    21df:	89 3d 00 00 00 00    	mov    %edi,0x0
    21e5:	0f b7 d3             	movzwl %bx,%edx
    21e8:	ee                   	out    %al,(%dx)
    21e9:	a1 0c 00 00 00       	mov    0xc,%eax
    21ee:	83 ec 0c             	sub    $0xc,%esp
    21f1:	6a 01                	push   $0x1
    21f3:	ff 10                	call   *(%eax)
    21f5:	81 c4 20 01 00 00    	add    $0x120,%esp
    21fb:	5b                   	pop    %ebx
    21fc:	5e                   	pop    %esi
    21fd:	5f                   	pop    %edi
    21fe:	c3                   	ret    
    21ff:	90                   	nop    
    2200:	0f b7 8b 04 00 00 00 	movzwl 0x4(%ebx),%ecx
    2207:	89 d0                	mov    %edx,%eax
    2209:	31 d2                	xor    %edx,%edx
    220b:	f7 f1                	div    %ecx
    220d:	fe c2                	inc    %dl
    220f:	88 54 24 0d          	mov    %dl,0xd(%esp,1)
    2213:	0f b7 93 06 00 00 00 	movzwl 0x6(%ebx),%edx
    221a:	89 d1                	mov    %edx,%ecx
    221c:	31 d2                	xor    %edx,%edx
    221e:	f7 f1                	div    %ecx
    2220:	89 c1                	mov    %eax,%ecx
    2222:	88 d3                	mov    %dl,%bl
    2224:	0f b7 c9             	movzwl %cx,%ecx
    2227:	e9 65 ff ff ff       	jmp    2191 <ata_cmd2+0x61>
    222c:	8d 74 26 00          	lea    0x0(%esi,1),%esi

00002230 <ata_cmd>:
    2230:	55                   	push   %ebp
    2231:	57                   	push   %edi
    2232:	56                   	push   %esi
    2233:	53                   	push   %ebx
    2234:	bb 00 00 00 00       	mov    $0x0,%ebx
    2239:	81 ec 24 01 00 00    	sub    $0x124,%esp
    223f:	8b 84 24 38 01 00 00 	mov    0x138(%esp,1),%eax
    2246:	0f b6 48 08          	movzbl 0x8(%eax),%ecx
    224a:	8d 34 49             	lea    (%ecx,%ecx,2),%esi
    224d:	c1 e6 02             	shl    $0x2,%esi
    2250:	0f b7 8e 0a 00 00 00 	movzwl 0xa(%esi),%ecx
    2257:	89 4c 24 10          	mov    %ecx,0x10(%esp,1)
    225b:	0f b6 54 1e 02       	movzbl 0x2(%esi,%ebx,1),%edx
    2260:	52                   	push   %edx
    2261:	51                   	push   %ecx
    2262:	e8 fc ff ff ff       	call   2263 <ata_cmd+0x33>
    2267:	83 c4 10             	add    $0x10,%esp
    226a:	85 c0                	test   %eax,%eax
    226c:	74 43                	je     22b1 <ata_cmd+0x81>
    226e:	83 ec 08             	sub    $0x8,%esp
    2271:	68 40 4c 00 00       	push   $0x4c40
    2276:	8d 7c 24 1c          	lea    0x1c(%esp,1),%edi
    227a:	57                   	push   %edi
    227b:	e8 fc ff ff ff       	call   227c <ata_cmd+0x4c>
    2280:	a1 0c 00 00 00       	mov    0xc,%eax
    2285:	89 3c 24             	mov    %edi,(%esp,1)
    2288:	68 6a 02 00 00       	push   $0x26a
    228d:	68 60 4c 00 00       	push   $0x4c60
    2292:	68 3e 4c 00 00       	push   $0x4c3e
    2297:	68 ff 00 00 00       	push   $0xff
    229c:	ff 10                	call   *(%eax)
    229e:	b8 ff ff ff ff       	mov    $0xffffffff,%eax
    22a3:	83 c4 20             	add    $0x20,%esp
    22a6:	81 c4 1c 01 00 00    	add    $0x11c,%esp
    22ac:	5b                   	pop    %ebx
    22ad:	5e                   	pop    %esi
    22ae:	5f                   	pop    %edi
    22af:	5d                   	pop    %ebp
    22b0:	c3                   	ret    
    22b1:	8b 94 24 30 01 00 00 	mov    0x130(%esp,1),%edx
    22b8:	0f b6 42 09          	movzbl 0x9(%edx),%eax
    22bc:	3c 01                	cmp    $0x1,%al
    22be:	0f 84 8c 02 00 00    	je     2550 <ata_cmd+0x320>
    22c4:	3c 02                	cmp    $0x2,%al
    22c6:	74 48                	je     2310 <ata_cmd+0xe0>
    22c8:	83 ec 04             	sub    $0x4,%esp
    22cb:	8b 84 24 34 01 00 00 	mov    0x134(%esp,1),%eax
    22d2:	0f b6 58 09          	movzbl 0x9(%eax),%ebx
    22d6:	53                   	push   %ebx
    22d7:	68 68 4c 00 00       	push   $0x4c68
    22dc:	8d 6c 24 1c          	lea    0x1c(%esp,1),%ebp
    22e0:	55                   	push   %ebp
    22e1:	e8 fc ff ff ff       	call   22e2 <ata_cmd+0xb2>
    22e6:	a1 0c 00 00 00       	mov    0xc,%eax
    22eb:	89 2c 24             	mov    %ebp,(%esp,1)
    22ee:	68 07 03 00 00       	push   $0x307
    22f3:	68 60 4c 00 00       	push   $0x4c60
    22f8:	68 3e 4c 00 00       	push   $0x4c3e
    22fd:	68 ff 00 00 00       	push   $0xff
    2302:	ff 10                	call   *(%eax)
    2304:	b8 fe ff ff ff       	mov    $0xfffffffe,%eax
    2309:	eb 98                	jmp    22a3 <ata_cmd+0x73>
    230b:	90                   	nop    
    230c:	8d 74 26 00          	lea    0x0(%esi,1),%esi
    2310:	8b 8c 24 30 01 00 00 	mov    0x130(%esp,1),%ecx
    2317:	0f b6 71 08          	movzbl 0x8(%ecx),%esi
    231b:	c6 44 24 0f 30       	movb   $0x30,0xf(%esp,1)
    2320:	8d 2c 76             	lea    (%esi,%esi,2),%ebp
    2323:	80 7c ab 03 01       	cmpb   $0x1,0x3(%ebx,%ebp,4)
    2328:	76 05                	jbe    232f <ata_cmd+0xff>
    232a:	c6 44 24 0f c5       	movb   $0xc5,0xf(%esp,1)
    232f:	8b 9c 24 30 01 00 00 	mov    0x130(%esp,1),%ebx
    2336:	8b 43 04             	mov    0x4(%ebx),%eax
    2339:	85 c0                	test   %eax,%eax
    233b:	0f 84 47 03 00 00    	je     2688 <ata_cmd+0x458>
    2341:	eb 0d                	jmp    2350 <ata_cmd+0x120>
    2343:	90                   	nop    
    2344:	90                   	nop    
    2345:	90                   	nop    
    2346:	90                   	nop    
    2347:	90                   	nop    
    2348:	90                   	nop    
    2349:	90                   	nop    
    234a:	90                   	nop    
    234b:	90                   	nop    
    234c:	90                   	nop    
    234d:	90                   	nop    
    234e:	90                   	nop    
    234f:	90                   	nop    
    2350:	8d 98 ff 01 00 00    	lea    0x1ff(%eax),%ebx
    2356:	8b 84 24 30 01 00 00 	mov    0x130(%esp,1),%eax
    235d:	c1 eb 09             	shr    $0x9,%ebx
    2360:	0f b6 78 08          	movzbl 0x8(%eax),%edi
    2364:	8d 14 7f             	lea    (%edi,%edi,2),%edx
    2367:	0f b6 2c 95 03 00 00 	movzbl 0x3(,%edx,4),%ebp
    236e:	00 
    236f:	39 dd                	cmp    %ebx,%ebp
    2371:	76 02                	jbe    2375 <ata_cmd+0x145>
    2373:	89 dd                	mov    %ebx,%ebp
    2375:	83 ec 04             	sub    $0x4,%esp
    2378:	89 eb                	mov    %ebp,%ebx
    237a:	0f b6 cb             	movzbl %bl,%ecx
    237d:	0f b6 54 24 13       	movzbl 0x13(%esp,1),%edx
    2382:	bb 14 00 00 00       	mov    $0x14,%ebx
    2387:	52                   	push   %edx
    2388:	51                   	push   %ecx
    2389:	8b b4 24 3c 01 00 00 	mov    0x13c(%esp,1),%esi
    2390:	56                   	push   %esi
    2391:	e8 fc ff ff ff       	call   2392 <ata_cmd+0x162>
    2396:	83 c4 10             	add    $0x10,%esp
    2399:	8b 44 24 08          	mov    0x8(%esp,1),%eax
    239d:	05 06 02 00 00       	add    $0x206,%eax
    23a2:	0f b7 f0             	movzwl %ax,%esi
    23a5:	8d 74 26 00          	lea    0x0(%esi,1),%esi
    23a9:	8d bc 27 00 00 00 00 	lea    0x0(%edi,1),%edi
    23b0:	89 f2                	mov    %esi,%edx
    23b2:	ec                   	in     (%dx),%al
    23b3:	83 e0 08             	and    $0x8,%eax
    23b6:	0f 84 79 01 00 00    	je     2535 <ata_cmd+0x305>
    23bc:	85 db                	test   %ebx,%ebx
    23be:	0f 84 2f 01 00 00    	je     24f3 <ata_cmd+0x2c3>
    23c4:	8b 84 24 30 01 00 00 	mov    0x130(%esp,1),%eax
    23cb:	8b 70 0c             	mov    0xc(%eax),%esi
    23ce:	01 28                	add    %ebp,(%eax)
    23d0:	c1 e5 09             	shl    $0x9,%ebp
    23d3:	89 e9                	mov    %ebp,%ecx
    23d5:	d1 e9                	shr    %ecx
    23d7:	8b 54 24 08          	mov    0x8(%esp,1),%edx
    23db:	fc                   	cld    
    23dc:	f3 66 6f             	repz outsw %ds:(%esi),(%dx)
    23df:	be 10 27 00 00       	mov    $0x2710,%esi
    23e4:	bb 00 c0 00 00       	mov    $0xc000,%ebx
    23e9:	8d b4 26 00 00 00 00 	lea    0x0(%esi,1),%esi
    23f0:	0f b7 05 00 00 00 00 	movzwl 0x0,%eax
    23f7:	89 c7                	mov    %eax,%edi
    23f9:	21 df                	and    %ebx,%edi
    23fb:	0f 84 d7 00 00 00    	je     24d8 <ata_cmd+0x2a8>
    2401:	31 db                	xor    %ebx,%ebx
    2403:	85 f6                	test   %esi,%esi
    2405:	74 0c                	je     2413 <ata_cmd+0x1e3>
    2407:	89 fe                	mov    %edi,%esi
    2409:	f7 d6                	not    %esi
    240b:	89 fb                	mov    %edi,%ebx
    240d:	21 35 00 00 00 00    	and    %esi,0x0
    2413:	85 db                	test   %ebx,%ebx
    2415:	74 7f                	je     2496 <ata_cmd+0x266>
    2417:	8b 7c 24 08          	mov    0x8(%esp,1),%edi
    241b:	83 c7 07             	add    $0x7,%edi
    241e:	0f b7 d7             	movzwl %di,%edx
    2421:	ec                   	in     (%dx),%al
    2422:	0f b6 d0             	movzbl %al,%edx
    2425:	88 d1                	mov    %dl,%cl
    2427:	80 e1 f1             	and    $0xf1,%cl
    242a:	80 f9 50             	cmp    $0x50,%cl
    242d:	74 41                	je     2470 <ata_cmd+0x240>
    242f:	83 ec 04             	sub    $0x4,%esp
    2432:	0f b6 ca             	movzbl %dl,%ecx
    2435:	51                   	push   %ecx
    2436:	68 80 4c 00 00       	push   $0x4c80
    243b:	8d 7c 24 1c          	lea    0x1c(%esp,1),%edi
    243f:	57                   	push   %edi
    2440:	e8 fc ff ff ff       	call   2441 <ata_cmd+0x211>
    2445:	a1 0c 00 00 00       	mov    0xc,%eax
    244a:	89 3c 24             	mov    %edi,(%esp,1)
    244d:	68 f5 02 00 00       	push   $0x2f5
    2452:	68 60 4c 00 00       	push   $0x4c60
    2457:	68 3e 4c 00 00       	push   $0x4c3e
    245c:	68 ff 00 00 00       	push   $0xff
    2461:	ff 10                	call   *(%eax)
    2463:	b8 fc ff ff ff       	mov    $0xfffffffc,%eax
    2468:	e9 36 fe ff ff       	jmp    22a3 <ata_cmd+0x73>
    246d:	8d 76 00             	lea    0x0(%esi),%esi
    2470:	8b 84 24 30 01 00 00 	mov    0x130(%esp,1),%eax
    2477:	01 68 0c             	add    %ebp,0xc(%eax)
    247a:	8b 9c 24 30 01 00 00 	mov    0x130(%esp,1),%ebx
    2481:	8b 43 04             	mov    0x4(%ebx),%eax
    2484:	29 e8                	sub    %ebp,%eax
    2486:	85 c0                	test   %eax,%eax
    2488:	89 43 04             	mov    %eax,0x4(%ebx)
    248b:	0f 85 bf fe ff ff    	jne    2350 <ata_cmd+0x120>
    2491:	e9 f2 01 00 00       	jmp    2688 <ata_cmd+0x458>
    2496:	83 ec 08             	sub    $0x8,%esp
    2499:	68 aa 4c 00 00       	push   $0x4caa
    249e:	8d 74 24 1c          	lea    0x1c(%esp,1),%esi
    24a2:	56                   	push   %esi
    24a3:	e8 fc ff ff ff       	call   24a4 <ata_cmd+0x274>
    24a8:	a1 0c 00 00 00       	mov    0xc,%eax
    24ad:	89 34 24             	mov    %esi,(%esp,1)
    24b0:	68 e9 02 00 00       	push   $0x2e9
    24b5:	68 60 4c 00 00       	push   $0x4c60
    24ba:	68 3e 4c 00 00       	push   $0x4c3e
    24bf:	68 ff 00 00 00       	push   $0xff
    24c4:	ff 10                	call   *(%eax)
    24c6:	83 c4 20             	add    $0x20,%esp
    24c9:	8b 5c 24 08          	mov    0x8(%esp,1),%ebx
    24cd:	83 c3 07             	add    $0x7,%ebx
    24d0:	0f b7 d3             	movzwl %bx,%edx
    24d3:	e9 f5 01 00 00       	jmp    26cd <ata_cmd+0x49d>
    24d8:	a1 0c 00 00 00       	mov    0xc,%eax
    24dd:	83 ec 0c             	sub    $0xc,%esp
    24e0:	6a 01                	push   $0x1
    24e2:	ff 10                	call   *(%eax)
    24e4:	83 c4 10             	add    $0x10,%esp
    24e7:	4e                   	dec    %esi
    24e8:	0f 85 02 ff ff ff    	jne    23f0 <ata_cmd+0x1c0>
    24ee:	e9 0e ff ff ff       	jmp    2401 <ata_cmd+0x1d1>
    24f3:	83 ec 08             	sub    $0x8,%esp
    24f6:	68 c3 4c 00 00       	push   $0x4cc3
    24fb:	8d 6c 24 1c          	lea    0x1c(%esp,1),%ebp
    24ff:	55                   	push   %ebp
    2500:	e8 fc ff ff ff       	call   2501 <ata_cmd+0x2d1>
    2505:	a1 0c 00 00 00       	mov    0xc,%eax
    250a:	89 2c 24             	mov    %ebp,(%esp,1)
    250d:	68 d7 02 00 00       	push   $0x2d7
    2512:	68 60 4c 00 00       	push   $0x4c60
    2517:	68 3e 4c 00 00       	push   $0x4c3e
    251c:	68 ff 00 00 00       	push   $0xff
    2521:	ff 10                	call   *(%eax)
    2523:	83 c4 20             	add    $0x20,%esp
    2526:	8b 44 24 08          	mov    0x8(%esp,1),%eax
    252a:	83 c0 07             	add    $0x7,%eax
    252d:	0f b7 d0             	movzwl %ax,%edx
    2530:	e9 98 01 00 00       	jmp    26cd <ata_cmd+0x49d>
    2535:	a1 0c 00 00 00       	mov    0xc,%eax
    253a:	83 ec 0c             	sub    $0xc,%esp
    253d:	6a 01                	push   $0x1
    253f:	ff 10                	call   *(%eax)
    2541:	83 c4 10             	add    $0x10,%esp
    2544:	4b                   	dec    %ebx
    2545:	0f 85 65 fe ff ff    	jne    23b0 <ata_cmd+0x180>
    254b:	e9 6c fe ff ff       	jmp    23bc <ata_cmd+0x18c>
    2550:	0f b6 72 08          	movzbl 0x8(%edx),%esi
    2554:	c6 44 24 0f 20       	movb   $0x20,0xf(%esp,1)
    2559:	8d 2c 76             	lea    (%esi,%esi,2),%ebp
    255c:	80 7c ab 03 01       	cmpb   $0x1,0x3(%ebx,%ebp,4)
    2561:	76 05                	jbe    2568 <ata_cmd+0x338>
    2563:	c6 44 24 0f c4       	movb   $0xc4,0xf(%esp,1)
    2568:	8b 9c 24 30 01 00 00 	mov    0x130(%esp,1),%ebx
    256f:	8b 43 04             	mov    0x4(%ebx),%eax
    2572:	85 c0                	test   %eax,%eax
    2574:	0f 84 0e 01 00 00    	je     2688 <ata_cmd+0x458>
    257a:	8d b6 00 00 00 00    	lea    0x0(%esi),%esi
    2580:	8d 98 ff 01 00 00    	lea    0x1ff(%eax),%ebx
    2586:	8b 84 24 30 01 00 00 	mov    0x130(%esp,1),%eax
    258d:	c1 eb 09             	shr    $0x9,%ebx
    2590:	0f b6 48 08          	movzbl 0x8(%eax),%ecx
    2594:	8d 14 49             	lea    (%ecx,%ecx,2),%edx
    2597:	0f b6 2c 95 03 00 00 	movzbl 0x3(,%edx,4),%ebp
    259e:	00 
    259f:	39 dd                	cmp    %ebx,%ebp
    25a1:	76 02                	jbe    25a5 <ata_cmd+0x375>
    25a3:	89 dd                	mov    %ebx,%ebp
    25a5:	83 ec 04             	sub    $0x4,%esp
    25a8:	89 eb                	mov    %ebp,%ebx
    25aa:	0f b6 f3             	movzbl %bl,%esi
    25ad:	0f b6 54 24 13       	movzbl 0x13(%esp,1),%edx
    25b2:	bb 10 27 00 00       	mov    $0x2710,%ebx
    25b7:	52                   	push   %edx
    25b8:	56                   	push   %esi
    25b9:	be 00 c0 00 00       	mov    $0xc000,%esi
    25be:	8b bc 24 3c 01 00 00 	mov    0x13c(%esp,1),%edi
    25c5:	57                   	push   %edi
    25c6:	e8 fc ff ff ff       	call   25c7 <ata_cmd+0x397>
    25cb:	83 c4 10             	add    $0x10,%esp
    25ce:	89 f6                	mov    %esi,%esi
    25d0:	0f b7 05 00 00 00 00 	movzwl 0x0,%eax
    25d7:	89 c7                	mov    %eax,%edi
    25d9:	21 f7                	and    %esi,%edi
    25db:	0f 84 f7 00 00 00    	je     26d8 <ata_cmd+0x4a8>
    25e1:	31 c0                	xor    %eax,%eax
    25e3:	85 db                	test   %ebx,%ebx
    25e5:	74 0c                	je     25f3 <ata_cmd+0x3c3>
    25e7:	89 f9                	mov    %edi,%ecx
    25e9:	f7 d1                	not    %ecx
    25eb:	89 f8                	mov    %edi,%eax
    25ed:	21 0d 00 00 00 00    	and    %ecx,0x0
    25f3:	85 c0                	test   %eax,%eax
    25f5:	0f 84 95 00 00 00    	je     2690 <ata_cmd+0x460>
    25fb:	8b 44 24 08          	mov    0x8(%esp,1),%eax
    25ff:	83 c0 07             	add    $0x7,%eax
    2602:	0f b7 d0             	movzwl %ax,%edx
    2605:	ec                   	in     (%dx),%al
    2606:	0f b6 d0             	movzbl %al,%edx
    2609:	88 d3                	mov    %dl,%bl
    260b:	80 e3 d9             	and    $0xd9,%bl
    260e:	80 fb 58             	cmp    $0x58,%bl
    2611:	74 3e                	je     2651 <ata_cmd+0x421>
    2613:	83 ec 04             	sub    $0x4,%esp
    2616:	0f b6 ca             	movzbl %dl,%ecx
    2619:	51                   	push   %ecx
    261a:	68 e0 4c 00 00       	push   $0x4ce0
    261f:	8d 7c 24 1c          	lea    0x1c(%esp,1),%edi
    2623:	57                   	push   %edi
    2624:	e8 fc ff ff ff       	call   2625 <ata_cmd+0x3f5>
    2629:	a1 0c 00 00 00       	mov    0xc,%eax
    262e:	89 3c 24             	mov    %edi,(%esp,1)
    2631:	68 9b 02 00 00       	push   $0x29b
    2636:	68 60 4c 00 00       	push   $0x4c60
    263b:	68 3e 4c 00 00       	push   $0x4c3e
    2640:	68 ff 00 00 00       	push   $0xff
    2645:	ff 10                	call   *(%eax)
    2647:	b8 fc ff ff ff       	mov    $0xfffffffc,%eax
    264c:	e9 52 fc ff ff       	jmp    22a3 <ata_cmd+0x73>
    2651:	8b 84 24 30 01 00 00 	mov    0x130(%esp,1),%eax
    2658:	8b 78 0c             	mov    0xc(%eax),%edi
    265b:	01 28                	add    %ebp,(%eax)
    265d:	c1 e5 09             	shl    $0x9,%ebp
    2660:	89 e9                	mov    %ebp,%ecx
    2662:	d1 e9                	shr    %ecx
    2664:	8b 54 24 08          	mov    0x8(%esp,1),%edx
    2668:	fc                   	cld    
    2669:	f3 66 6d             	repz insw (%dx),%es:(%edi)
    266c:	01 ef                	add    %ebp,%edi
    266e:	89 78 0c             	mov    %edi,0xc(%eax)
    2671:	8b bc 24 30 01 00 00 	mov    0x130(%esp,1),%edi
    2678:	8b 47 04             	mov    0x4(%edi),%eax
    267b:	29 e8                	sub    %ebp,%eax
    267d:	85 c0                	test   %eax,%eax
    267f:	89 47 04             	mov    %eax,0x4(%edi)
    2682:	0f 85 f8 fe ff ff    	jne    2580 <ata_cmd+0x350>
    2688:	31 c0                	xor    %eax,%eax
    268a:	e9 17 fc ff ff       	jmp    22a6 <ata_cmd+0x76>
    268f:	90                   	nop    
    2690:	83 ec 08             	sub    $0x8,%esp
    2693:	68 09 4d 00 00       	push   $0x4d09
    2698:	8d 74 24 1c          	lea    0x1c(%esp,1),%esi
    269c:	56                   	push   %esi
    269d:	e8 fc ff ff ff       	call   269e <ata_cmd+0x46e>
    26a2:	a1 0c 00 00 00       	mov    0xc,%eax
    26a7:	89 34 24             	mov    %esi,(%esp,1)
    26aa:	68 8f 02 00 00       	push   $0x28f
    26af:	68 60 4c 00 00       	push   $0x4c60
    26b4:	68 3e 4c 00 00       	push   $0x4c3e
    26b9:	68 ff 00 00 00       	push   $0xff
    26be:	ff 10                	call   *(%eax)
    26c0:	83 c4 20             	add    $0x20,%esp
    26c3:	8b 6c 24 08          	mov    0x8(%esp,1),%ebp
    26c7:	83 c5 07             	add    $0x7,%ebp
    26ca:	0f b7 d5             	movzwl %bp,%edx
    26cd:	ec                   	in     (%dx),%al
    26ce:	b8 fd ff ff ff       	mov    $0xfffffffd,%eax
    26d3:	e9 ce fb ff ff       	jmp    22a6 <ata_cmd+0x76>
    26d8:	a1 0c 00 00 00       	mov    0xc,%eax
    26dd:	83 ec 0c             	sub    $0xc,%esp
    26e0:	6a 01                	push   $0x1
    26e2:	ff 10                	call   *(%eax)
    26e4:	83 c4 10             	add    $0x10,%esp
    26e7:	4b                   	dec    %ebx
    26e8:	0f 85 e2 fe ff ff    	jne    25d0 <ata_cmd+0x3a0>
    26ee:	e9 ee fe ff ff       	jmp    25e1 <ata_cmd+0x3b1>
    26f3:	8d b6 00 00 00 00    	lea    0x0(%esi),%esi
    26f9:	8d bc 27 00 00 00 00 	lea    0x0(%edi,1),%edi

00002700 <atapi_cmd2>:
    2700:	55                   	push   %ebp
    2701:	57                   	push   %edi
    2702:	56                   	push   %esi
    2703:	53                   	push   %ebx
    2704:	81 ec 24 01 00 00    	sub    $0x124,%esp
    270a:	8b 84 24 38 01 00 00 	mov    0x138(%esp,1),%eax
    2711:	0f b6 58 08          	movzbl 0x8(%eax),%ebx
    2715:	8d 0c 5b             	lea    (%ebx,%ebx,2),%ecx
    2718:	c1 e1 02             	shl    $0x2,%ecx
    271b:	0f b6 91 02 00 00 00 	movzbl 0x2(%ecx),%edx
    2722:	0f b7 a9 0a 00 00 00 	movzwl 0xa(%ecx),%ebp
    2729:	52                   	push   %edx
    272a:	55                   	push   %ebp
    272b:	e8 fc ff ff ff       	call   272c <atapi_cmd2+0x2c>
    2730:	83 c4 10             	add    $0x10,%esp
    2733:	85 c0                	test   %eax,%eax
    2735:	74 49                	je     2780 <atapi_cmd2+0x80>
    2737:	83 ec 08             	sub    $0x8,%esp
    273a:	68 40 4d 00 00       	push   $0x4d40
    273f:	8d 74 24 1c          	lea    0x1c(%esp,1),%esi
    2743:	56                   	push   %esi
    2744:	e8 fc ff ff ff       	call   2745 <atapi_cmd2+0x45>
    2749:	a1 0c 00 00 00       	mov    0xc,%eax
    274e:	89 34 24             	mov    %esi,(%esp,1)
    2751:	68 36 03 00 00       	push   $0x336
    2756:	68 63 4d 00 00       	push   $0x4d63
    275b:	68 3e 4c 00 00       	push   $0x4c3e
    2760:	68 ff 00 00 00       	push   $0xff
    2765:	ff 10                	call   *(%eax)
    2767:	b8 ff ff ff ff       	mov    $0xffffffff,%eax
    276c:	83 c4 20             	add    $0x20,%esp
    276f:	81 c4 1c 01 00 00    	add    $0x11c,%esp
    2775:	5b                   	pop    %ebx
    2776:	5e                   	pop    %esi
    2777:	5f                   	pop    %edi
    2778:	5d                   	pop    %ebp
    2779:	c3                   	ret    
    277a:	8d b6 00 00 00 00    	lea    0x0(%esi),%esi
    2780:	8d 45 01             	lea    0x1(%ebp),%eax
    2783:	0f b7 d0             	movzwl %ax,%edx
    2786:	31 c0                	xor    %eax,%eax
    2788:	ee                   	out    %al,(%dx)
    2789:	8d 75 02             	lea    0x2(%ebp),%esi
    278c:	0f b7 d6             	movzwl %si,%edx
    278f:	ee                   	out    %al,(%dx)
    2790:	8d 5d 03             	lea    0x3(%ebp),%ebx
    2793:	0f b7 d3             	movzwl %bx,%edx
    2796:	ee                   	out    %al,(%dx)
    2797:	8d 4d 04             	lea    0x4(%ebp),%ecx
    279a:	0f b7 d1             	movzwl %cx,%edx
    279d:	ee                   	out    %al,(%dx)
    279e:	b0 80                	mov    $0x80,%al
    27a0:	8d 7d 05             	lea    0x5(%ebp),%edi
    27a3:	0f b7 d7             	movzwl %di,%edx
    27a6:	ee                   	out    %al,(%dx)
    27a7:	b0 a0                	mov    $0xa0,%al
    27a9:	8d 55 07             	lea    0x7(%ebp),%edx
    27ac:	0f b7 da             	movzwl %dx,%ebx
    27af:	89 da                	mov    %ebx,%edx
    27b1:	ee                   	out    %al,(%dx)
    27b2:	be f4 01 00 00       	mov    $0x1f4,%esi
    27b7:	a1 0c 00 00 00       	mov    0xc,%eax
    27bc:	83 ec 0c             	sub    $0xc,%esp
    27bf:	6a 01                	push   $0x1
    27c1:	ff 10                	call   *(%eax)
    27c3:	83 c4 10             	add    $0x10,%esp
    27c6:	8d 76 00             	lea    0x0(%esi),%esi
    27c9:	8d bc 27 00 00 00 00 	lea    0x0(%edi,1),%edi
    27d0:	89 da                	mov    %ebx,%edx
    27d2:	ec                   	in     (%dx),%al
    27d3:	24 88                	and    $0x88,%al
    27d5:	3c 08                	cmp    $0x8,%al
    27d7:	74 12                	je     27eb <atapi_cmd2+0xeb>
    27d9:	a1 0c 00 00 00       	mov    0xc,%eax
    27de:	83 ec 0c             	sub    $0xc,%esp
    27e1:	6a 01                	push   $0x1
    27e3:	ff 10                	call   *(%eax)
    27e5:	83 c4 10             	add    $0x10,%esp
    27e8:	4e                   	dec    %esi
    27e9:	75 e5                	jne    27d0 <atapi_cmd2+0xd0>
    27eb:	85 f6                	test   %esi,%esi
    27ed:	0f 84 20 02 00 00    	je     2a13 <atapi_cmd2+0x313>
    27f3:	31 d2                	xor    %edx,%edx
    27f5:	b9 06 00 00 00       	mov    $0x6,%ecx
    27fa:	8b b4 24 34 01 00 00 	mov    0x134(%esp,1),%esi
    2801:	89 15 00 00 00 00    	mov    %edx,0x0
    2807:	89 ea                	mov    %ebp,%edx
    2809:	fc                   	cld    
    280a:	f3 66 6f             	repz outsw %ds:(%esi),(%dx)
    280d:	8d 75 07             	lea    0x7(%ebp),%esi
    2810:	8d 7d 02             	lea    0x2(%ebp),%edi
    2813:	0f b7 ce             	movzwl %si,%ecx
    2816:	89 4c 24 0c          	mov    %ecx,0xc(%esp,1)
    281a:	0f b7 df             	movzwl %di,%ebx
    281d:	89 5c 24 08          	mov    %ebx,0x8(%esp,1)
    2821:	eb 0d                	jmp    2830 <atapi_cmd2+0x130>
    2823:	90                   	nop    
    2824:	90                   	nop    
    2825:	90                   	nop    
    2826:	90                   	nop    
    2827:	90                   	nop    
    2828:	90                   	nop    
    2829:	90                   	nop    
    282a:	90                   	nop    
    282b:	90                   	nop    
    282c:	90                   	nop    
    282d:	90                   	nop    
    282e:	90                   	nop    
    282f:	90                   	nop    
    2830:	bb 10 27 00 00       	mov    $0x2710,%ebx
    2835:	8d 74 26 00          	lea    0x0(%esi,1),%esi
    2839:	8d bc 27 00 00 00 00 	lea    0x0(%edi,1),%edi
    2840:	0f b7 05 00 00 00 00 	movzwl 0x0,%eax
    2847:	89 c6                	mov    %eax,%esi
    2849:	81 e6 00 c0 00 00    	and    $0xc000,%esi
    284f:	0f 84 a3 01 00 00    	je     29f8 <atapi_cmd2+0x2f8>
    2855:	31 c0                	xor    %eax,%eax
    2857:	85 db                	test   %ebx,%ebx
    2859:	74 0c                	je     2867 <atapi_cmd2+0x167>
    285b:	89 f3                	mov    %esi,%ebx
    285d:	f7 d3                	not    %ebx
    285f:	89 f0                	mov    %esi,%eax
    2861:	21 1d 00 00 00 00    	and    %ebx,0x0
    2867:	85 c0                	test   %eax,%eax
    2869:	0f 84 48 01 00 00    	je     29b7 <atapi_cmd2+0x2b7>
    286f:	8b 54 24 0c          	mov    0xc(%esp,1),%edx
    2873:	ec                   	in     (%dx),%al
    2874:	88 c1                	mov    %al,%cl
    2876:	80 e1 08             	and    $0x8,%cl
    2879:	8b 54 24 08          	mov    0x8(%esp,1),%edx
    287d:	ec                   	in     (%dx),%al
    287e:	24 03                	and    $0x3,%al
    2880:	08 c1                	or     %al,%cl
    2882:	80 f9 03             	cmp    $0x3,%cl
    2885:	0f 84 d7 00 00 00    	je     2962 <atapi_cmd2+0x262>
    288b:	84 c9                	test   %cl,%cl
    288d:	b8 fa ff ff ff       	mov    $0xfffffffa,%eax
    2892:	0f 84 d7 fe ff ff    	je     276f <atapi_cmd2+0x6f>
    2898:	80 f9 0a             	cmp    $0xa,%cl
    289b:	74 43                	je     28e0 <atapi_cmd2+0x1e0>
    289d:	83 ec 04             	sub    $0x4,%esp
    28a0:	0f b6 d1             	movzbl %cl,%edx
    28a3:	52                   	push   %edx
    28a4:	68 6e 4d 00 00       	push   $0x4d6e
    28a9:	8d 6c 24 1c          	lea    0x1c(%esp,1),%ebp
    28ad:	55                   	push   %ebp
    28ae:	e8 fc ff ff ff       	call   28af <atapi_cmd2+0x1af>
    28b3:	a1 0c 00 00 00       	mov    0xc,%eax
    28b8:	89 2c 24             	mov    %ebp,(%esp,1)
    28bb:	68 82 03 00 00       	push   $0x382
    28c0:	68 63 4d 00 00       	push   $0x4d63
    28c5:	68 3e 4c 00 00       	push   $0x4c3e
    28ca:	68 ff 00 00 00       	push   $0xff
    28cf:	ff 10                	call   *(%eax)
    28d1:	b8 f9 ff ff ff       	mov    $0xfffffff9,%eax
    28d6:	e9 91 fe ff ff       	jmp    276c <atapi_cmd2+0x6c>
    28db:	90                   	nop    
    28dc:	8d 74 26 00          	lea    0x0(%esi,1),%esi
    28e0:	8d 5d 05             	lea    0x5(%ebp),%ebx
    28e3:	0f b7 d3             	movzwl %bx,%edx
    28e6:	ec                   	in     (%dx),%al
    28e7:	0f b6 c8             	movzbl %al,%ecx
    28ea:	8d 75 04             	lea    0x4(%ebp),%esi
    28ed:	c1 e1 08             	shl    $0x8,%ecx
    28f0:	0f b7 d6             	movzwl %si,%edx
    28f3:	ec                   	in     (%dx),%al
    28f4:	8b bc 24 30 01 00 00 	mov    0x130(%esp,1),%edi
    28fb:	0f b6 f0             	movzbl %al,%esi
    28fe:	09 ce                	or     %ecx,%esi
    2900:	8b 47 04             	mov    0x4(%edi),%eax
    2903:	89 f3                	mov    %esi,%ebx
    2905:	39 c6                	cmp    %eax,%esi
    2907:	76 02                	jbe    290b <atapi_cmd2+0x20b>
    2909:	89 c6                	mov    %eax,%esi
    290b:	8b 84 24 30 01 00 00 	mov    0x130(%esp,1),%eax
    2912:	89 f1                	mov    %esi,%ecx
    2914:	d1 e9                	shr    %ecx
    2916:	89 ea                	mov    %ebp,%edx
    2918:	8b 78 0c             	mov    0xc(%eax),%edi
    291b:	fc                   	cld    
    291c:	f3 66 6d             	repz insw (%dx),%es:(%edi)
    291f:	89 da                	mov    %ebx,%edx
    2921:	29 f2                	sub    %esi,%edx
    2923:	0f b7 da             	movzwl %dx,%ebx
    2926:	66 83 fb 01          	cmp    $0x1,%bx
    292a:	76 14                	jbe    2940 <atapi_cmd2+0x240>
    292c:	8d 74 26 00          	lea    0x0(%esi,1),%esi
    2930:	89 ea                	mov    %ebp,%edx
    2932:	66 ed                	in     (%dx),%ax
    2934:	8d 4b fe             	lea    0xfffffffe(%ebx),%ecx
    2937:	0f b7 d9             	movzwl %cx,%ebx
    293a:	66 83 fb 01          	cmp    $0x1,%bx
    293e:	77 f0                	ja     2930 <atapi_cmd2+0x230>
    2940:	66 85 db             	test   %bx,%bx
    2943:	74 03                	je     2948 <atapi_cmd2+0x248>
    2945:	89 ea                	mov    %ebp,%edx
    2947:	ec                   	in     (%dx),%al
    2948:	8d 1c 3e             	lea    (%esi,%edi,1),%ebx
    294b:	8b bc 24 30 01 00 00 	mov    0x130(%esp,1),%edi
    2952:	29 77 04             	sub    %esi,0x4(%edi)
    2955:	c1 ee 0b             	shr    $0xb,%esi
    2958:	01 37                	add    %esi,(%edi)
    295a:	89 5f 0c             	mov    %ebx,0xc(%edi)
    295d:	e9 ce fe ff ff       	jmp    2830 <atapi_cmd2+0x130>
    2962:	8b ac 24 30 01 00 00 	mov    0x130(%esp,1),%ebp
    2969:	8b 45 04             	mov    0x4(%ebp),%eax
    296c:	85 c0                	test   %eax,%eax
    296e:	74 40                	je     29b0 <atapi_cmd2+0x2b0>
    2970:	83 ec 08             	sub    $0x8,%esp
    2973:	68 87 4d 00 00       	push   $0x4d87
    2978:	8d 74 24 1c          	lea    0x1c(%esp,1),%esi
    297c:	56                   	push   %esi
    297d:	e8 fc ff ff ff       	call   297e <atapi_cmd2+0x27e>
    2982:	a1 0c 00 00 00       	mov    0xc,%eax
    2987:	89 34 24             	mov    %esi,(%esp,1)
    298a:	68 70 03 00 00       	push   $0x370
    298f:	68 63 4d 00 00       	push   $0x4d63
    2994:	68 3e 4c 00 00       	push   $0x4c3e
    2999:	68 ff 00 00 00       	push   $0xff
    299e:	ff 10                	call   *(%eax)
    29a0:	b8 fb ff ff ff       	mov    $0xfffffffb,%eax
    29a5:	e9 c2 fd ff ff       	jmp    276c <atapi_cmd2+0x6c>
    29aa:	8d b6 00 00 00 00    	lea    0x0(%esi),%esi
    29b0:	31 c0                	xor    %eax,%eax
    29b2:	e9 b8 fd ff ff       	jmp    276f <atapi_cmd2+0x6f>
    29b7:	8d 4d 07             	lea    0x7(%ebp),%ecx
    29ba:	0f b7 d1             	movzwl %cx,%edx
    29bd:	ec                   	in     (%dx),%al
    29be:	83 ec 08             	sub    $0x8,%esp
    29c1:	68 a1 4d 00 00       	push   $0x4da1
    29c6:	8d 7c 24 1c          	lea    0x1c(%esp,1),%edi
    29ca:	57                   	push   %edi
    29cb:	e8 fc ff ff ff       	call   29cc <atapi_cmd2+0x2cc>
    29d0:	a1 0c 00 00 00       	mov    0xc,%eax
    29d5:	89 3c 24             	mov    %edi,(%esp,1)
    29d8:	68 62 03 00 00       	push   $0x362
    29dd:	68 63 4d 00 00       	push   $0x4d63
    29e2:	68 3e 4c 00 00       	push   $0x4c3e
    29e7:	68 ff 00 00 00       	push   $0xff
    29ec:	ff 10                	call   *(%eax)
    29ee:	b8 fc ff ff ff       	mov    $0xfffffffc,%eax
    29f3:	e9 74 fd ff ff       	jmp    276c <atapi_cmd2+0x6c>
    29f8:	a1 0c 00 00 00       	mov    0xc,%eax
    29fd:	83 ec 0c             	sub    $0xc,%esp
    2a00:	6a 01                	push   $0x1
    2a02:	ff 10                	call   *(%eax)
    2a04:	83 c4 10             	add    $0x10,%esp
    2a07:	4b                   	dec    %ebx
    2a08:	0f 85 32 fe ff ff    	jne    2840 <atapi_cmd2+0x140>
    2a0e:	e9 42 fe ff ff       	jmp    2855 <atapi_cmd2+0x155>
    2a13:	83 ec 08             	sub    $0x8,%esp
    2a16:	68 c0 4d 00 00       	push   $0x4dc0
    2a1b:	8d 6c 24 1c          	lea    0x1c(%esp,1),%ebp
    2a1f:	55                   	push   %ebp
    2a20:	e8 fc ff ff ff       	call   2a21 <atapi_cmd2+0x321>
    2a25:	a1 0c 00 00 00       	mov    0xc,%eax
    2a2a:	89 2c 24             	mov    %ebp,(%esp,1)
    2a2d:	68 53 03 00 00       	push   $0x353
    2a32:	68 63 4d 00 00       	push   $0x4d63
    2a37:	68 3e 4c 00 00       	push   $0x4c3e
    2a3c:	68 ff 00 00 00       	push   $0xff
    2a41:	ff 10                	call   *(%eax)
    2a43:	b8 fd ff ff ff       	mov    $0xfffffffd,%eax
    2a48:	e9 1f fd ff ff       	jmp    276c <atapi_cmd2+0x6c>
    2a4d:	8d 76 00             	lea    0x0(%esi),%esi

00002a50 <atapi_play>:
    2a50:	55                   	push   %ebp
    2a51:	31 c0                	xor    %eax,%eax
    2a53:	31 d2                	xor    %edx,%edx
    2a55:	57                   	push   %edi
    2a56:	31 ed                	xor    %ebp,%ebp
    2a58:	31 c9                	xor    %ecx,%ecx
    2a5a:	56                   	push   %esi
    2a5b:	53                   	push   %ebx
    2a5c:	31 db                	xor    %ebx,%ebx
    2a5e:	81 ec 34 01 00 00    	sub    $0x134,%esp
    2a64:	89 84 24 18 01 00 00 	mov    %eax,0x118(%esp,1)
    2a6b:	8b b4 24 4c 01 00 00 	mov    0x14c(%esp,1),%esi
    2a72:	8b 84 24 48 01 00 00 	mov    0x148(%esp,1),%eax
    2a79:	89 9c 24 1c 01 00 00 	mov    %ebx,0x11c(%esp,1)
    2a80:	8b bc 24 50 01 00 00 	mov    0x150(%esp,1),%edi
    2a87:	31 db                	xor    %ebx,%ebx
    2a89:	88 84 24 10 01 00 00 	mov    %al,0x110(%esp,1)
    2a90:	89 f0                	mov    %esi,%eax
    2a92:	89 9c 24 14 01 00 00 	mov    %ebx,0x114(%esp,1)
    2a99:	bb b5 81 4e 1b       	mov    $0x1b4e81b5,%ebx
    2a9e:	89 94 24 20 01 00 00 	mov    %edx,0x120(%esp,1)
    2aa5:	f7 e3                	mul    %ebx
    2aa7:	89 ac 24 0c 01 00 00 	mov    %ebp,0x10c(%esp,1)
    2aae:	89 8c 24 08 01 00 00 	mov    %ecx,0x108(%esp,1)
    2ab5:	c6 84 24 18 01 00 00 	movb   $0x47,0x118(%esp,1)
    2abc:	47 
    2abd:	89 d5                	mov    %edx,%ebp
    2abf:	c1 ed 03             	shr    $0x3,%ebp
    2ac2:	c6 84 24 11 01 00 00 	movb   $0x0,0x111(%esp,1)
    2ac9:	00 
    2aca:	8d 44 ad 00          	lea    0x0(%ebp,%ebp,4),%eax
    2ace:	89 c2                	mov    %eax,%edx
    2ad0:	c1 e2 04             	shl    $0x4,%edx
    2ad3:	29 c2                	sub    %eax,%edx
    2ad5:	89 e8                	mov    %ebp,%eax
    2ad7:	29 d6                	sub    %edx,%esi
    2ad9:	89 f1                	mov    %esi,%ecx
    2adb:	be 89 88 88 88       	mov    $0x88888889,%esi
    2ae0:	f7 e6                	mul    %esi
    2ae2:	88 8c 24 1d 01 00 00 	mov    %cl,0x11d(%esp,1)
    2ae9:	89 d1                	mov    %edx,%ecx
    2aeb:	89 ea                	mov    %ebp,%edx
    2aed:	c1 e9 05             	shr    $0x5,%ecx
    2af0:	89 c8                	mov    %ecx,%eax
    2af2:	c1 e0 04             	shl    $0x4,%eax
    2af5:	88 8c 24 1b 01 00 00 	mov    %cl,0x11b(%esp,1)
    2afc:	29 c8                	sub    %ecx,%eax
    2afe:	c1 e0 02             	shl    $0x2,%eax
    2b01:	29 c2                	sub    %eax,%edx
    2b03:	89 f8                	mov    %edi,%eax
    2b05:	88 94 24 1c 01 00 00 	mov    %dl,0x11c(%esp,1)
    2b0c:	f7 e3                	mul    %ebx
    2b0e:	89 d1                	mov    %edx,%ecx
    2b10:	c1 e9 03             	shr    $0x3,%ecx
    2b13:	8d 04 89             	lea    (%ecx,%ecx,4),%eax
    2b16:	89 c5                	mov    %eax,%ebp
    2b18:	c1 e5 04             	shl    $0x4,%ebp
    2b1b:	29 c5                	sub    %eax,%ebp
    2b1d:	89 c8                	mov    %ecx,%eax
    2b1f:	29 ef                	sub    %ebp,%edi
    2b21:	89 fa                	mov    %edi,%edx
    2b23:	88 94 24 20 01 00 00 	mov    %dl,0x120(%esp,1)
    2b2a:	f7 e6                	mul    %esi
    2b2c:	89 d7                	mov    %edx,%edi
    2b2e:	8d 94 24 18 01 00 00 	lea    0x118(%esp,1),%edx
    2b35:	c1 ef 05             	shr    $0x5,%edi
    2b38:	89 fb                	mov    %edi,%ebx
    2b3a:	c1 e3 04             	shl    $0x4,%ebx
    2b3d:	29 fb                	sub    %edi,%ebx
    2b3f:	c1 e3 02             	shl    $0x2,%ebx
    2b42:	29 d9                	sub    %ebx,%ecx
    2b44:	88 8c 24 1f 01 00 00 	mov    %cl,0x11f(%esp,1)
    2b4b:	89 f9                	mov    %edi,%ecx
    2b4d:	88 8c 24 1e 01 00 00 	mov    %cl,0x11e(%esp,1)
    2b54:	52                   	push   %edx
    2b55:	8d 94 24 0c 01 00 00 	lea    0x10c(%esp,1),%edx
    2b5c:	52                   	push   %edx
    2b5d:	e8 fc ff ff ff       	call   2b5e <atapi_play+0x10e>
    2b62:	81 c4 3c 01 00 00    	add    $0x13c,%esp
    2b68:	5b                   	pop    %ebx
    2b69:	5e                   	pop    %esi
    2b6a:	5f                   	pop    %edi
    2b6b:	5d                   	pop    %ebp
    2b6c:	c3                   	ret    
    2b6d:	8d 76 00             	lea    0x0(%esi),%esi

00002b70 <atapi_TOC>:
    2b70:	55                   	push   %ebp
    2b71:	31 d2                	xor    %edx,%edx
    2b73:	31 c9                	xor    %ecx,%ecx
    2b75:	57                   	push   %edi
    2b76:	31 ed                	xor    %ebp,%ebp
    2b78:	31 ff                	xor    %edi,%edi
    2b7a:	56                   	push   %esi
    2b7b:	b8 04 00 00 00       	mov    $0x4,%eax
    2b80:	53                   	push   %ebx
    2b81:	81 ec 9c 06 00 00    	sub    $0x69c,%esp
    2b87:	8b 9c 24 b0 06 00 00 	mov    0x6b0(%esp,1),%ebx
    2b8e:	89 94 24 50 02 00 00 	mov    %edx,0x250(%esp,1)
    2b95:	8d b4 24 60 03 00 00 	lea    0x360(%esp,1),%esi
    2b9c:	89 8c 24 54 02 00 00 	mov    %ecx,0x254(%esp,1)
    2ba3:	89 ac 24 58 02 00 00 	mov    %ebp,0x258(%esp,1)
    2baa:	c6 84 24 50 02 00 00 	movb   $0x43,0x250(%esp,1)
    2bb1:	43 
    2bb2:	89 bc 24 40 02 00 00 	mov    %edi,0x240(%esp,1)
    2bb9:	89 84 24 44 02 00 00 	mov    %eax,0x244(%esp,1)
    2bc0:	88 9c 24 48 02 00 00 	mov    %bl,0x248(%esp,1)
    2bc7:	c6 84 24 49 02 00 00 	movb   $0x0,0x249(%esp,1)
    2bce:	00 
    2bcf:	89 b4 24 4c 02 00 00 	mov    %esi,0x24c(%esp,1)
    2bd6:	c6 84 24 51 02 00 00 	movb   $0x2,0x251(%esp,1)
    2bdd:	02 
    2bde:	c6 84 24 56 02 00 00 	movb   $0x0,0x256(%esp,1)
    2be5:	00 
    2be6:	c6 84 24 57 02 00 00 	movb   $0x0,0x257(%esp,1)
    2bed:	00 
    2bee:	c6 84 24 58 02 00 00 	movb   $0x4,0x258(%esp,1)
    2bf5:	04 
    2bf6:	c6 84 24 59 02 00 00 	movb   $0x0,0x259(%esp,1)
    2bfd:	00 
    2bfe:	83 ec 08             	sub    $0x8,%esp
    2c01:	8d 8c 24 58 02 00 00 	lea    0x258(%esp,1),%ecx
    2c08:	51                   	push   %ecx
    2c09:	8d 94 24 4c 02 00 00 	lea    0x24c(%esp,1),%edx
    2c10:	52                   	push   %edx
    2c11:	e8 fc ff ff ff       	call   2c12 <atapi_TOC+0xa2>
    2c16:	89 c2                	mov    %eax,%edx
    2c18:	83 c4 10             	add    $0x10,%esp
    2c1b:	85 d2                	test   %edx,%edx
    2c1d:	74 11                	je     2c30 <atapi_TOC+0xc0>
    2c1f:	81 c4 9c 06 00 00    	add    $0x69c,%esp
    2c25:	5b                   	pop    %ebx
    2c26:	5e                   	pop    %esi
    2c27:	5f                   	pop    %edi
    2c28:	5d                   	pop    %ebp
    2c29:	c3                   	ret    
    2c2a:	8d b6 00 00 00 00    	lea    0x0(%esi),%esi
    2c30:	0f b6 bc 24 63 03 00 	movzbl 0x363(%esp,1),%edi
    2c37:	00 
    2c38:	0f b6 84 24 62 03 00 	movzbl 0x362(%esp,1),%eax
    2c3f:	00 
    2c40:	29 c7                	sub    %eax,%edi
    2c42:	8d 57 01             	lea    0x1(%edi),%edx
    2c45:	89 15 00 00 00 00    	mov    %edx,0x0
    2c4b:	83 ff 62             	cmp    $0x62,%edi
    2c4e:	76 40                	jbe    2c90 <atapi_TOC+0x120>
    2c50:	83 ec 04             	sub    $0x4,%esp
    2c53:	52                   	push   %edx
    2c54:	68 00 4e 00 00       	push   $0x4e00
    2c59:	8d b4 24 6c 02 00 00 	lea    0x26c(%esp,1),%esi
    2c60:	56                   	push   %esi
    2c61:	e8 fc ff ff ff       	call   2c62 <atapi_TOC+0xf2>
    2c66:	a1 0c 00 00 00       	mov    0xc,%eax
    2c6b:	89 34 24             	mov    %esi,(%esp,1)
    2c6e:	68 59 04 00 00       	push   $0x459
    2c73:	68 23 4e 00 00       	push   $0x4e23
    2c78:	68 3e 4c 00 00       	push   $0x4c3e
    2c7d:	68 ff 00 00 00       	push   $0xff
    2c82:	ff 10                	call   *(%eax)
    2c84:	b8 ff ff ff ff       	mov    $0xffffffff,%eax
    2c89:	83 c4 20             	add    $0x20,%esp
    2c8c:	eb 91                	jmp    2c1f <atapi_TOC+0xaf>
    2c8e:	89 f6                	mov    %esi,%esi
    2c90:	83 fa 20             	cmp    $0x20,%edx
    2c93:	76 0b                	jbe    2ca0 <atapi_TOC+0x130>
    2c95:	bd 20 00 00 00       	mov    $0x20,%ebp
    2c9a:	89 2d 00 00 00 00    	mov    %ebp,0x0
    2ca0:	88 9c 24 18 01 00 00 	mov    %bl,0x118(%esp,1)
    2ca7:	a1 00 00 00 00       	mov    0x0,%eax
    2cac:	31 ed                	xor    %ebp,%ebp
    2cae:	89 ac 24 24 01 00 00 	mov    %ebp,0x124(%esp,1)
    2cb5:	31 ff                	xor    %edi,%edi
    2cb7:	89 bc 24 28 01 00 00 	mov    %edi,0x128(%esp,1)
    2cbe:	8d 0c c5 0c 00 00 00 	lea    0xc(,%eax,8),%ecx
    2cc5:	89 ca                	mov    %ecx,%edx
    2cc7:	89 8c 24 14 01 00 00 	mov    %ecx,0x114(%esp,1)
    2cce:	31 c0                	xor    %eax,%eax
    2cd0:	c1 ea 08             	shr    $0x8,%edx
    2cd3:	89 84 24 20 01 00 00 	mov    %eax,0x120(%esp,1)
    2cda:	31 c0                	xor    %eax,%eax
    2cdc:	88 8c 24 28 01 00 00 	mov    %cl,0x128(%esp,1)
    2ce3:	c6 84 24 20 01 00 00 	movb   $0x43,0x120(%esp,1)
    2cea:	43 
    2ceb:	89 84 24 10 01 00 00 	mov    %eax,0x110(%esp,1)
    2cf2:	c6 84 24 19 01 00 00 	movb   $0x0,0x119(%esp,1)
    2cf9:	00 
    2cfa:	89 b4 24 1c 01 00 00 	mov    %esi,0x11c(%esp,1)
    2d01:	c6 84 24 21 01 00 00 	movb   $0x2,0x121(%esp,1)
    2d08:	02 
    2d09:	c6 84 24 26 01 00 00 	movb   $0x0,0x126(%esp,1)
    2d10:	00 
    2d11:	88 94 24 27 01 00 00 	mov    %dl,0x127(%esp,1)
    2d18:	c6 84 24 29 01 00 00 	movb   $0x0,0x129(%esp,1)
    2d1f:	00 
    2d20:	83 ec 08             	sub    $0x8,%esp
    2d23:	8d 8c 24 28 01 00 00 	lea    0x128(%esp,1),%ecx
    2d2a:	51                   	push   %ecx
    2d2b:	8d 9c 24 1c 01 00 00 	lea    0x11c(%esp,1),%ebx
    2d32:	53                   	push   %ebx
    2d33:	e8 fc ff ff ff       	call   2d34 <atapi_TOC+0x1c4>
    2d38:	89 c1                	mov    %eax,%ecx
    2d3a:	83 c4 10             	add    $0x10,%esp
    2d3d:	85 c9                	test   %ecx,%ecx
    2d3f:	0f 85 da fe ff ff    	jne    2c1f <atapi_TOC+0xaf>
    2d45:	8b 1d 00 00 00 00    	mov    0x0,%ebx
    2d4b:	bd 01 00 00 00       	mov    $0x1,%ebp
    2d50:	bf 02 00 00 00       	mov    $0x2,%edi
    2d55:	be 03 00 00 00       	mov    $0x3,%esi
    2d5a:	31 d2                	xor    %edx,%edx
    2d5c:	8d 74 26 00          	lea    0x0(%esi,1),%esi
    2d60:	0f b6 84 54 69 03 00 	movzbl 0x369(%esp,%edx,2),%eax
    2d67:	00 
    2d68:	41                   	inc    %ecx
    2d69:	88 44 15 00          	mov    %al,0x0(%ebp,%edx,1)
    2d6d:	0f b6 84 54 6a 03 00 	movzbl 0x36a(%esp,%edx,2),%eax
    2d74:	00 
    2d75:	88 04 17             	mov    %al,(%edi,%edx,1)
    2d78:	0f b6 84 54 6b 03 00 	movzbl 0x36b(%esp,%edx,2),%eax
    2d7f:	00 
    2d80:	88 04 16             	mov    %al,(%esi,%edx,1)
    2d83:	83 c2 04             	add    $0x4,%edx
    2d86:	39 d9                	cmp    %ebx,%ecx
    2d88:	76 d6                	jbe    2d60 <atapi_TOC+0x1f0>
    2d8a:	31 c0                	xor    %eax,%eax
    2d8c:	e9 8e fe ff ff       	jmp    2c1f <atapi_TOC+0xaf>
    2d91:	eb 0d                	jmp    2da0 <nsleep>
    2d93:	90                   	nop    
    2d94:	90                   	nop    
    2d95:	90                   	nop    
    2d96:	90                   	nop    
    2d97:	90                   	nop    
    2d98:	90                   	nop    
    2d99:	90                   	nop    
    2d9a:	90                   	nop    
    2d9b:	90                   	nop    
    2d9c:	90                   	nop    
    2d9d:	90                   	nop    
    2d9e:	90                   	nop    
    2d9f:	90                   	nop    

00002da0 <nsleep>:
    2da0:	83 ec 18             	sub    $0x18,%esp
    2da3:	a1 0c 00 00 00       	mov    0xc,%eax
    2da8:	6a 01                	push   $0x1
    2daa:	ff 10                	call   *(%eax)
    2dac:	83 c4 1c             	add    $0x1c,%esp
    2daf:	c3                   	ret    

00002db0 <awaitInterrupt>:
    2db0:	57                   	push   %edi
    2db1:	56                   	push   %esi
    2db2:	53                   	push   %ebx
    2db3:	8b 5c 24 14          	mov    0x14(%esp,1),%ebx
    2db7:	0f b7 74 24 10       	movzwl 0x10(%esp,1),%esi
    2dbc:	85 db                	test   %ebx,%ebx
    2dbe:	74 21                	je     2de1 <awaitInterrupt+0x31>
    2dc0:	0f b7 05 00 00 00 00 	movzwl 0x0,%eax
    2dc7:	89 c7                	mov    %eax,%edi
    2dc9:	21 f7                	and    %esi,%edi
    2dcb:	74 18                	je     2de5 <awaitInterrupt+0x35>
    2dcd:	85 db                	test   %ebx,%ebx
    2dcf:	74 10                	je     2de1 <awaitInterrupt+0x31>
    2dd1:	89 fa                	mov    %edi,%edx
    2dd3:	f7 d2                	not    %edx
    2dd5:	89 f8                	mov    %edi,%eax
    2dd7:	21 15 00 00 00 00    	and    %edx,0x0
    2ddd:	5b                   	pop    %ebx
    2dde:	5e                   	pop    %esi
    2ddf:	5f                   	pop    %edi
    2de0:	c3                   	ret    
    2de1:	31 c0                	xor    %eax,%eax
    2de3:	eb f8                	jmp    2ddd <awaitInterrupt+0x2d>
    2de5:	a1 0c 00 00 00       	mov    0xc,%eax
    2dea:	83 ec 0c             	sub    $0xc,%esp
    2ded:	6a 01                	push   $0x1
    2def:	ff 10                	call   *(%eax)
    2df1:	83 c4 10             	add    $0x10,%esp
    2df4:	4b                   	dec    %ebx
    2df5:	75 c9                	jne    2dc0 <awaitInterrupt+0x10>
    2df7:	eb d4                	jmp    2dcd <awaitInterrupt+0x1d>
    2df9:	8d b4 26 00 00 00 00 	lea    0x0(%esi,1),%esi

00002e00 <atapi_cmd>:
    2e00:	53                   	push   %ebx
    2e01:	81 ec 18 01 00 00    	sub    $0x118,%esp
    2e07:	8b 8c 24 20 01 00 00 	mov    0x120(%esp,1),%ecx
    2e0e:	80 79 09 01          	cmpb   $0x1,0x9(%ecx)
    2e12:	74 40                	je     2e54 <atapi_cmd+0x54>
    2e14:	83 ec 08             	sub    $0x8,%esp
    2e17:	68 2d 4e 00 00       	push   $0x4e2d
    2e1c:	8d 5c 24 0c          	lea    0xc(%esp,1),%ebx
    2e20:	53                   	push   %ebx
    2e21:	e8 fc ff ff ff       	call   2e22 <atapi_cmd+0x22>
    2e26:	a1 0c 00 00 00       	mov    0xc,%eax
    2e2b:	89 1c 24             	mov    %ebx,(%esp,1)
    2e2e:	68 c4 03 00 00       	push   $0x3c4
    2e33:	68 40 4e 00 00       	push   $0x4e40
    2e38:	68 3e 4c 00 00       	push   $0x4c3e
    2e3d:	68 ff 00 00 00       	push   $0xff
    2e42:	ff 10                	call   *(%eax)
    2e44:	b8 fe ff ff ff       	mov    $0xfffffffe,%eax
    2e49:	83 c4 20             	add    $0x20,%esp
    2e4c:	81 c4 18 01 00 00    	add    $0x118,%esp
    2e52:	5b                   	pop    %ebx
    2e53:	c3                   	ret    
    2e54:	c6 84 24 00 01 00 00 	movb   $0x28,0x100(%esp,1)
    2e5b:	28 
    2e5c:	c6 84 24 01 01 00 00 	movb   $0x0,0x101(%esp,1)
    2e63:	00 
    2e64:	8b 19                	mov    (%ecx),%ebx
    2e66:	89 da                	mov    %ebx,%edx
    2e68:	c1 ea 18             	shr    $0x18,%edx
    2e6b:	88 94 24 02 01 00 00 	mov    %dl,0x102(%esp,1)
    2e72:	89 da                	mov    %ebx,%edx
    2e74:	c1 eb 08             	shr    $0x8,%ebx
    2e77:	88 9c 24 04 01 00 00 	mov    %bl,0x104(%esp,1)
    2e7e:	c1 ea 10             	shr    $0x10,%edx
    2e81:	88 94 24 03 01 00 00 	mov    %dl,0x103(%esp,1)
    2e88:	0f b6 19             	movzbl (%ecx),%ebx
    2e8b:	88 9c 24 05 01 00 00 	mov    %bl,0x105(%esp,1)
    2e92:	8b 59 04             	mov    0x4(%ecx),%ebx
    2e95:	c6 84 24 09 01 00 00 	movb   $0x0,0x109(%esp,1)
    2e9c:	00 
    2e9d:	c6 84 24 0b 01 00 00 	movb   $0x0,0x10b(%esp,1)
    2ea4:	00 
    2ea5:	c6 84 24 0a 01 00 00 	movb   $0x0,0x10a(%esp,1)
    2eac:	00 
    2ead:	89 da                	mov    %ebx,%edx
    2eaf:	c1 ea 1b             	shr    $0x1b,%edx
    2eb2:	88 94 24 06 01 00 00 	mov    %dl,0x106(%esp,1)
    2eb9:	89 da                	mov    %ebx,%edx
    2ebb:	c1 eb 0b             	shr    $0xb,%ebx
    2ebe:	88 9c 24 08 01 00 00 	mov    %bl,0x108(%esp,1)
    2ec5:	c1 ea 13             	shr    $0x13,%edx
    2ec8:	88 94 24 07 01 00 00 	mov    %dl,0x107(%esp,1)
    2ecf:	83 ec 08             	sub    $0x8,%esp
    2ed2:	8d 94 24 08 01 00 00 	lea    0x108(%esp,1),%edx
    2ed9:	52                   	push   %edx
    2eda:	51                   	push   %ecx
    2edb:	e8 fc ff ff ff       	call   2edc <atapi_cmd+0xdc>
    2ee0:	83 c4 10             	add    $0x10,%esp
    2ee3:	e9 64 ff ff ff       	jmp    2e4c <atapi_cmd+0x4c>
    2ee8:	90                   	nop    
    2ee9:	8d b4 26 00 00 00 00 	lea    0x0(%esi,1),%esi

00002ef0 <atapi_eject>:
    2ef0:	81 ec 34 01 00 00    	sub    $0x134,%esp
    2ef6:	31 c0                	xor    %eax,%eax
    2ef8:	31 c9                	xor    %ecx,%ecx
    2efa:	89 84 24 20 01 00 00 	mov    %eax,0x120(%esp,1)
    2f01:	31 d2                	xor    %edx,%edx
    2f03:	8b 84 24 3c 01 00 00 	mov    0x13c(%esp,1),%eax
    2f0a:	89 8c 24 18 01 00 00 	mov    %ecx,0x118(%esp,1)
    2f11:	31 c9                	xor    %ecx,%ecx
    2f13:	88 84 24 10 01 00 00 	mov    %al,0x110(%esp,1)
    2f1a:	8b 84 24 38 01 00 00 	mov    0x138(%esp,1),%eax
    2f21:	89 94 24 1c 01 00 00 	mov    %edx,0x11c(%esp,1)
    2f28:	31 d2                	xor    %edx,%edx
    2f2a:	89 8c 24 08 01 00 00 	mov    %ecx,0x108(%esp,1)
    2f31:	31 c9                	xor    %ecx,%ecx
    2f33:	85 c0                	test   %eax,%eax
    2f35:	0f 94 c0             	sete   %al
    2f38:	89 8c 24 14 01 00 00 	mov    %ecx,0x114(%esp,1)
    2f3f:	b1 03                	mov    $0x3,%cl
    2f41:	89 94 24 0c 01 00 00 	mov    %edx,0x10c(%esp,1)
    2f48:	28 c1                	sub    %al,%cl
    2f4a:	8d 94 24 18 01 00 00 	lea    0x118(%esp,1),%edx
    2f51:	c6 84 24 18 01 00 00 	movb   $0x1b,0x118(%esp,1)
    2f58:	1b 
    2f59:	c6 84 24 11 01 00 00 	movb   $0x0,0x111(%esp,1)
    2f60:	00 
    2f61:	88 8c 24 1c 01 00 00 	mov    %cl,0x11c(%esp,1)
    2f68:	52                   	push   %edx
    2f69:	8d 94 24 0c 01 00 00 	lea    0x10c(%esp,1),%edx
    2f70:	52                   	push   %edx
    2f71:	e8 fc ff ff ff       	call   2f72 <atapi_eject+0x82>
    2f76:	81 c4 3c 01 00 00    	add    $0x13c,%esp
    2f7c:	c3                   	ret    
    2f7d:	8d 76 00             	lea    0x0(%esi),%esi

00002f80 <atapi_TOCEnt>:
    2f80:	81 ec 34 01 00 00    	sub    $0x134,%esp
    2f86:	31 c0                	xor    %eax,%eax
    2f88:	8b 94 24 3c 01 00 00 	mov    0x13c(%esp,1),%edx
    2f8f:	89 84 24 1c 01 00 00 	mov    %eax,0x11c(%esp,1)
    2f96:	31 c9                	xor    %ecx,%ecx
    2f98:	31 c0                	xor    %eax,%eax
    2f9a:	89 84 24 08 01 00 00 	mov    %eax,0x108(%esp,1)
    2fa1:	8b 84 24 40 01 00 00 	mov    0x140(%esp,1),%eax
    2fa8:	89 8c 24 18 01 00 00 	mov    %ecx,0x118(%esp,1)
    2faf:	31 c9                	xor    %ecx,%ecx
    2fb1:	88 84 24 10 01 00 00 	mov    %al,0x110(%esp,1)
    2fb8:	8b 84 24 38 01 00 00 	mov    0x138(%esp,1),%eax
    2fbf:	89 8c 24 20 01 00 00 	mov    %ecx,0x120(%esp,1)
    2fc6:	89 d1                	mov    %edx,%ecx
    2fc8:	c1 e9 08             	shr    $0x8,%ecx
    2fcb:	89 94 24 0c 01 00 00 	mov    %edx,0x10c(%esp,1)
    2fd2:	88 94 24 20 01 00 00 	mov    %dl,0x120(%esp,1)
    2fd9:	8d 94 24 18 01 00 00 	lea    0x118(%esp,1),%edx
    2fe0:	c6 84 24 18 01 00 00 	movb   $0x43,0x118(%esp,1)
    2fe7:	43 
    2fe8:	c6 84 24 11 01 00 00 	movb   $0x0,0x111(%esp,1)
    2fef:	00 
    2ff0:	89 84 24 14 01 00 00 	mov    %eax,0x114(%esp,1)
    2ff7:	c6 84 24 19 01 00 00 	movb   $0x2,0x119(%esp,1)
    2ffe:	02 
    2fff:	c6 84 24 1e 01 00 00 	movb   $0x0,0x11e(%esp,1)
    3006:	00 
    3007:	88 8c 24 1f 01 00 00 	mov    %cl,0x11f(%esp,1)
    300e:	c6 84 24 21 01 00 00 	movb   $0x0,0x121(%esp,1)
    3015:	00 
    3016:	52                   	push   %edx
    3017:	8d 94 24 0c 01 00 00 	lea    0x10c(%esp,1),%edx
    301e:	52                   	push   %edx
    301f:	e8 fc ff ff ff       	call   3020 <atapi_TOCEnt+0xa0>
    3024:	81 c4 3c 01 00 00    	add    $0x13c,%esp
    302a:	c3                   	ret    
    302b:	90                   	nop    
    302c:	8d 74 26 00          	lea    0x0(%esi,1),%esi

00003030 <atapi_pause>:
    3030:	81 ec 34 01 00 00    	sub    $0x134,%esp
    3036:	31 c0                	xor    %eax,%eax
    3038:	31 d2                	xor    %edx,%edx
    303a:	89 84 24 18 01 00 00 	mov    %eax,0x118(%esp,1)
    3041:	31 c9                	xor    %ecx,%ecx
    3043:	31 c0                	xor    %eax,%eax
    3045:	89 84 24 08 01 00 00 	mov    %eax,0x108(%esp,1)
    304c:	8b 84 24 3c 01 00 00 	mov    0x13c(%esp,1),%eax
    3053:	89 94 24 20 01 00 00 	mov    %edx,0x120(%esp,1)
    305a:	31 d2                	xor    %edx,%edx
    305c:	88 84 24 10 01 00 00 	mov    %al,0x110(%esp,1)
    3063:	8b 84 24 38 01 00 00 	mov    0x138(%esp,1),%eax
    306a:	89 8c 24 1c 01 00 00 	mov    %ecx,0x11c(%esp,1)
    3071:	31 c9                	xor    %ecx,%ecx
    3073:	85 c0                	test   %eax,%eax
    3075:	89 94 24 14 01 00 00 	mov    %edx,0x114(%esp,1)
    307c:	8d 94 24 18 01 00 00 	lea    0x118(%esp,1),%edx
    3083:	c6 84 24 18 01 00 00 	movb   $0x4b,0x118(%esp,1)
    308a:	4b 
    308b:	89 8c 24 0c 01 00 00 	mov    %ecx,0x10c(%esp,1)
    3092:	c6 84 24 11 01 00 00 	movb   $0x0,0x111(%esp,1)
    3099:	00 
    309a:	0f 95 84 24 20 01 00 	setne  0x120(%esp,1)
    30a1:	00 
    30a2:	52                   	push   %edx
    30a3:	8d 94 24 0c 01 00 00 	lea    0x10c(%esp,1),%edx
    30aa:	52                   	push   %edx
    30ab:	e8 fc ff ff ff       	call   30ac <atapi_pause+0x7c>
    30b0:	81 c4 3c 01 00 00    	add    $0x13c,%esp
    30b6:	c3                   	ret    
    30b7:	89 f6                	mov    %esi,%esi
    30b9:	8d bc 27 00 00 00 00 	lea    0x0(%edi,1),%edi

000030c0 <irq14>:
    30c0:	81 ec 0c 01 00 00    	sub    $0x10c,%esp
    30c6:	81 0d 00 00 00 00 00 	orl    $0x4000,0x0
    30cd:	40 00 00 
    30d0:	81 c4 0c 01 00 00    	add    $0x10c,%esp
    30d6:	c3                   	ret    
    30d7:	89 f6                	mov    %esi,%esi
    30d9:	8d bc 27 00 00 00 00 	lea    0x0(%edi,1),%edi

000030e0 <irq15>:
    30e0:	81 ec 0c 01 00 00    	sub    $0x10c,%esp
    30e6:	81 0d 00 00 00 00 00 	orl    $0x8000,0x0
    30ed:	80 00 00 
    30f0:	81 c4 0c 01 00 00    	add    $0x10c,%esp
    30f6:	c3                   	ret    
    30f7:	89 f6                	mov    %esi,%esi
    30f9:	8d bc 27 00 00 00 00 	lea    0x0(%edi,1),%edi

00003100 <irqStart>:
    3100:	83 ec 14             	sub    $0x14,%esp
    3103:	a1 0c 00 00 00       	mov    0xc,%eax
    3108:	68 00 00 00 00       	push   $0x0
    310d:	6a 0e                	push   $0xe
    310f:	ff 10                	call   *(%eax)
    3111:	59                   	pop    %ecx
    3112:	58                   	pop    %eax
    3113:	a1 0c 00 00 00       	mov    0xc,%eax
    3118:	68 00 00 00 00       	push   $0x0
    311d:	6a 0f                	push   $0xf
    311f:	ff 10                	call   *(%eax)
    3121:	83 c4 1c             	add    $0x1c,%esp
    3124:	c3                   	ret    
    3125:	8d 74 26 00          	lea    0x0(%esi,1),%esi
    3129:	8d bc 27 00 00 00 00 	lea    0x0(%edi,1),%edi

00003130 <irqEnd>:
    3130:	83 ec 18             	sub    $0x18,%esp
    3133:	a1 0c 00 00 00       	mov    0xc,%eax
    3138:	6a 0e                	push   $0xe
    313a:	ff 50 04             	call   *0x4(%eax)
    313d:	a1 0c 00 00 00       	mov    0xc,%eax
    3142:	c7 04 24 0f 00 00 00 	movl   $0xf,(%esp,1)
    3149:	ff 50 04             	call   *0x4(%eax)
    314c:	83 c4 1c             	add    $0x1c,%esp
    314f:	c3                   	ret    

00003150 <ata_main>:
    3150:	83 ec 0c             	sub    $0xc,%esp
    3153:	e8 fc ff ff ff       	call   3154 <ata_main+0x4>
    3158:	e8 fc ff ff ff       	call   3159 <ata_main+0x9>
    315d:	31 c0                	xor    %eax,%eax
    315f:	83 c4 0c             	add    $0xc,%esp
    3162:	c3                   	ret    
    3163:	8d b6 00 00 00 00    	lea    0x0(%esi),%esi
    3169:	8d bc 27 00 00 00 00 	lea    0x0(%edi,1),%edi

00003170 <ata_block_create>:
    3170:	56                   	push   %esi
    3171:	53                   	push   %ebx
    3172:	81 ec 24 01 00 00    	sub    $0x124,%esp
    3178:	8b 84 24 34 01 00 00 	mov    0x134(%esp,1),%eax
    317f:	c7 44 24 10 00 00 00 	movl   $0x0,0x10(%esp,1)
    3186:	00 
    3187:	c7 44 24 14 00 00 00 	movl   $0x0,0x14(%esp,1)
    318e:	00 
    318f:	89 44 24 0c          	mov    %eax,0xc(%esp,1)
    3193:	89 44 24 08          	mov    %eax,0x8(%esp,1)
    3197:	a1 00 00 00 00       	mov    0x0,%eax
    319c:	c7 44 24 18 00 00 00 	movl   $0x0,0x18(%esp,1)
    31a3:	00 
    31a4:	c7 44 24 1c 00 00 00 	movl   $0x0,0x1c(%esp,1)
    31ab:	00 
    31ac:	85 c0                	test   %eax,%eax
    31ae:	74 50                	je     3200 <ata_block_create+0x90>
    31b0:	83 ec 04             	sub    $0x4,%esp
    31b3:	8b 0d 28 64 00 00    	mov    0x6428,%ecx
    31b9:	8d 5c 24 0c          	lea    0xc(%esp,1),%ebx
    31bd:	53                   	push   %ebx
    31be:	51                   	push   %ecx
    31bf:	8d 74 24 1c          	lea    0x1c(%esp,1),%esi
    31c3:	56                   	push   %esi
    31c4:	e8 fc ff ff ff       	call   31c5 <ata_block_create+0x55>
    31c9:	83 c4 0c             	add    $0xc,%esp
    31cc:	8b 84 24 34 01 00 00 	mov    0x134(%esp,1),%eax
    31d3:	50                   	push   %eax
    31d4:	68 4a 4e 00 00       	push   $0x4e4a
    31d9:	8d 5c 24 2c          	lea    0x2c(%esp,1),%ebx
    31dd:	53                   	push   %ebx
    31de:	e8 fc ff ff ff       	call   31df <ata_block_create+0x6f>
    31e3:	a1 0c 00 00 00       	mov    0xc,%eax
    31e8:	83 c4 0c             	add    $0xc,%esp
    31eb:	56                   	push   %esi
    31ec:	53                   	push   %ebx
    31ed:	68 04 00 00 00       	push   $0x4
    31f2:	ff 10                	call   *(%eax)
    31f4:	31 c0                	xor    %eax,%eax
    31f6:	81 c4 34 01 00 00    	add    $0x134,%esp
    31fc:	5b                   	pop    %ebx
    31fd:	5e                   	pop    %esi
    31fe:	c3                   	ret    
    31ff:	90                   	nop    
    3200:	83 ec 08             	sub    $0x8,%esp
    3203:	6a 00                	push   $0x0
    3205:	68 b0 62 00 00       	push   $0x62b0
    320a:	6a 02                	push   $0x2
    320c:	6a 02                	push   $0x2
    320e:	68 00 40 00 00       	push   $0x4000
    3213:	68 20 64 00 00       	push   $0x6420
    3218:	e8 fc ff ff ff       	call   3219 <ata_block_create+0xa9>
    321d:	83 c4 18             	add    $0x18,%esp
    3220:	6a 00                	push   $0x0
    3222:	68 f0 62 00 00       	push   $0x62f0
    3227:	6a 02                	push   $0x2
    3229:	6a 00                	push   $0x0
    322b:	68 01 0a 00 00       	push   $0xa01
    3230:	68 24 64 00 00       	push   $0x6424
    3235:	e8 fc ff ff ff       	call   3236 <ata_block_create+0xc6>
    323a:	8b 15 20 64 00 00    	mov    0x6420,%edx
    3240:	83 c4 18             	add    $0x18,%esp
    3243:	52                   	push   %edx
    3244:	68 24 64 00 00       	push   $0x6424
    3249:	6a 01                	push   $0x1
    324b:	6a 00                	push   $0x0
    324d:	68 00 04 01 00       	push   $0x10400
    3252:	68 28 64 00 00       	push   $0x6428
    3257:	e8 fc ff ff ff       	call   3258 <ata_block_create+0xe8>
    325c:	b8 01 00 00 00       	mov    $0x1,%eax
    3261:	83 c4 20             	add    $0x20,%esp
    3264:	a3 00 00 00 00       	mov    %eax,0x0
    3269:	e9 42 ff ff ff       	jmp    31b0 <ata_block_create+0x40>
    326e:	89 f6                	mov    %esi,%esi

00003270 <ata_block_destroy>:
    3270:	31 c0                	xor    %eax,%eax
    3272:	c3                   	ret    
    3273:	8d b6 00 00 00 00    	lea    0x0(%esi),%esi
    3279:	8d bc 27 00 00 00 00 	lea    0x0(%edi,1),%edi

00003280 <ata_create>:
    3280:	57                   	push   %edi
    3281:	56                   	push   %esi
    3282:	53                   	push   %ebx
    3283:	81 ec 18 01 00 00    	sub    $0x118,%esp
    3289:	8b b4 24 2c 01 00 00 	mov    0x12c(%esp,1),%esi
    3290:	8b bc 24 28 01 00 00 	mov    0x128(%esp,1),%edi
    3297:	56                   	push   %esi
    3298:	57                   	push   %edi
    3299:	68 5d 4e 00 00       	push   $0x4e5d
    329e:	68 68 4e 00 00       	push   $0x4e68
    32a3:	68 74 4e 00 00       	push   $0x4e74
    32a8:	8d 5c 24 2c          	lea    0x2c(%esp,1),%ebx
    32ac:	53                   	push   %ebx
    32ad:	e8 fc ff ff ff       	call   32ae <ata_create+0x2e>
    32b2:	a1 0c 00 00 00       	mov    0xc,%eax
    32b7:	83 c4 14             	add    $0x14,%esp
    32ba:	53                   	push   %ebx
    32bb:	6a 14                	push   $0x14
    32bd:	68 5d 4e 00 00       	push   $0x4e5d
    32c2:	68 85 4e 00 00       	push   $0x4e85
    32c7:	6a 02                	push   $0x2
    32c9:	ff 10                	call   *(%eax)
    32cb:	a1 0c 00 00 00       	mov    0xc,%eax
    32d0:	83 c4 18             	add    $0x18,%esp
    32d3:	6a 04                	push   $0x4
    32d5:	8d 54 24 18          	lea    0x18(%esp,1),%edx
    32d9:	52                   	push   %edx
    32da:	ff 10                	call   *(%eax)
    32dc:	8b 06                	mov    (%esi),%eax
    32de:	8b 4c 24 1c          	mov    0x1c(%esp,1),%ecx
    32e2:	89 01                	mov    %eax,(%ecx)
    32e4:	31 c0                	xor    %eax,%eax
    32e6:	89 0f                	mov    %ecx,(%edi)
    32e8:	81 c4 20 01 00 00    	add    $0x120,%esp
    32ee:	5b                   	pop    %ebx
    32ef:	5e                   	pop    %esi
    32f0:	5f                   	pop    %edi
    32f1:	c3                   	ret    
    32f2:	8d b4 26 00 00 00 00 	lea    0x0(%esi,1),%esi
    32f9:	8d bc 27 00 00 00 00 	lea    0x0(%edi,1),%edi

00003300 <ata_destroy>:
    3300:	56                   	push   %esi
    3301:	53                   	push   %ebx
    3302:	81 ec 10 01 00 00    	sub    $0x110,%esp
    3308:	8b 84 24 1c 01 00 00 	mov    0x11c(%esp,1),%eax
    330f:	8b 30                	mov    (%eax),%esi
    3311:	50                   	push   %eax
    3312:	68 86 4e 00 00       	push   $0x4e86
    3317:	68 68 4e 00 00       	push   $0x4e68
    331c:	68 92 4e 00 00       	push   $0x4e92
    3321:	8d 5c 24 1c          	lea    0x1c(%esp,1),%ebx
    3325:	53                   	push   %ebx
    3326:	e8 fc ff ff ff       	call   3327 <ata_destroy+0x27>
    332b:	a1 0c 00 00 00       	mov    0xc,%eax
    3330:	83 c4 14             	add    $0x14,%esp
    3333:	53                   	push   %ebx
    3334:	6a 28                	push   $0x28
    3336:	68 86 4e 00 00       	push   $0x4e86
    333b:	68 85 4e 00 00       	push   $0x4e85
    3340:	6a 02                	push   $0x2
    3342:	ff 10                	call   *(%eax)
    3344:	a1 0c 00 00 00       	mov    0xc,%eax
    3349:	83 c4 14             	add    $0x14,%esp
    334c:	56                   	push   %esi
    334d:	ff 50 04             	call   *0x4(%eax)
    3350:	31 c0                	xor    %eax,%eax
    3352:	81 c4 14 01 00 00    	add    $0x114,%esp
    3358:	5b                   	pop    %ebx
    3359:	5e                   	pop    %esi
    335a:	c3                   	ret    
    335b:	90                   	nop    
    335c:	8d 74 26 00          	lea    0x0(%esi,1),%esi

00003360 <ata_block_read>:
    3360:	56                   	push   %esi
    3361:	53                   	push   %ebx
    3362:	81 ec 20 01 00 00    	sub    $0x120,%esp
    3368:	8b 84 24 2c 01 00 00 	mov    0x12c(%esp,1),%eax
    336f:	8b 00                	mov    (%eax),%eax
    3371:	0f b6 10             	movzbl (%eax),%edx
    3374:	c6 84 24 15 01 00 00 	movb   $0x1,0x115(%esp,1)
    337b:	01 
    337c:	8b 84 24 30 01 00 00 	mov    0x130(%esp,1),%eax
    3383:	89 84 24 18 01 00 00 	mov    %eax,0x118(%esp,1)
    338a:	8b 84 24 34 01 00 00 	mov    0x134(%esp,1),%eax
    3391:	88 94 24 14 01 00 00 	mov    %dl,0x114(%esp,1)
    3398:	8d 94 24 0c 01 00 00 	lea    0x10c(%esp,1),%edx
    339f:	89 84 24 0c 01 00 00 	mov    %eax,0x10c(%esp,1)
    33a6:	8b 84 24 3c 01 00 00 	mov    0x13c(%esp,1),%eax
    33ad:	c1 e0 09             	shl    $0x9,%eax
    33b0:	89 84 24 10 01 00 00 	mov    %eax,0x110(%esp,1)
    33b7:	52                   	push   %edx
    33b8:	e8 fc ff ff ff       	call   33b9 <ata_block_read+0x59>
    33bd:	89 c6                	mov    %eax,%esi
    33bf:	89 34 24             	mov    %esi,(%esp,1)
    33c2:	68 9f 4e 00 00       	push   $0x4e9f
    33c7:	68 68 4e 00 00       	push   $0x4e68
    33cc:	68 ae 4e 00 00       	push   $0x4eae
    33d1:	8d 5c 24 1c          	lea    0x1c(%esp,1),%ebx
    33d5:	53                   	push   %ebx
    33d6:	e8 fc ff ff ff       	call   33d7 <ata_block_read+0x77>
    33db:	a1 0c 00 00 00       	mov    0xc,%eax
    33e0:	83 c4 14             	add    $0x14,%esp
    33e3:	53                   	push   %ebx
    33e4:	6a 5c                	push   $0x5c
    33e6:	68 9f 4e 00 00       	push   $0x4e9f
    33eb:	68 85 4e 00 00       	push   $0x4e85
    33f0:	6a 02                	push   $0x2
    33f2:	ff 10                	call   *(%eax)
    33f4:	89 f0                	mov    %esi,%eax
    33f6:	81 c4 34 01 00 00    	add    $0x134,%esp
    33fc:	5b                   	pop    %ebx
    33fd:	5e                   	pop    %esi
    33fe:	c3                   	ret    
    33ff:	90                   	nop    

00003400 <ata_block_write>:
    3400:	83 ec 28             	sub    $0x28,%esp
    3403:	8b 44 24 2c          	mov    0x2c(%esp,1),%eax
    3407:	8b 00                	mov    (%eax),%eax
    3409:	0f b6 10             	movzbl (%eax),%edx
    340c:	c6 44 24 15 02       	movb   $0x2,0x15(%esp,1)
    3411:	8b 44 24 30          	mov    0x30(%esp,1),%eax
    3415:	89 44 24 18          	mov    %eax,0x18(%esp,1)
    3419:	8b 44 24 34          	mov    0x34(%esp,1),%eax
    341d:	88 54 24 14          	mov    %dl,0x14(%esp,1)
    3421:	8d 54 24 0c          	lea    0xc(%esp,1),%edx
    3425:	89 44 24 0c          	mov    %eax,0xc(%esp,1)
    3429:	8b 44 24 3c          	mov    0x3c(%esp,1),%eax
    342d:	c1 e0 09             	shl    $0x9,%eax
    3430:	89 44 24 10          	mov    %eax,0x10(%esp,1)
    3434:	52                   	push   %edx
    3435:	e8 fc ff ff ff       	call   3436 <ata_block_write+0x36>
    343a:	83 c4 2c             	add    $0x2c,%esp
    343d:	c3                   	ret    
    343e:	90                   	nop    
    343f:	90                   	nop    

00003440 <module_start>:
    3440:	83 ec 14             	sub    $0x14,%esp
    3443:	68 01 0b 00 00       	push   $0xb01
    3448:	68 00 00 00 00       	push   $0x0
    344d:	e8 fc ff ff ff       	call   344e <module_start+0xe>
    3452:	59                   	pop    %ecx
    3453:	58                   	pop    %eax
    3454:	68 01 01 00 00       	push   $0x101
    3459:	68 00 00 00 00       	push   $0x0
    345e:	e8 fc ff ff ff       	call   345f <module_start+0x1f>
    3463:	58                   	pop    %eax
    3464:	5a                   	pop    %edx
    3465:	68 01 02 00 00       	push   $0x201
    346a:	68 00 00 00 00       	push   $0x0
    346f:	e8 fc ff ff ff       	call   3470 <module_start+0x30>
    3474:	5a                   	pop    %edx
    3475:	59                   	pop    %ecx
    3476:	68 01 03 00 00       	push   $0x301
    347b:	68 00 00 00 00       	push   $0x0
    3480:	e8 fc ff ff ff       	call   3481 <module_start+0x41>
    3485:	59                   	pop    %ecx
    3486:	58                   	pop    %eax
    3487:	68 01 06 00 00       	push   $0x601
    348c:	68 00 00 00 00       	push   $0x0
    3491:	e8 fc ff ff ff       	call   3492 <module_start+0x52>
    3496:	58                   	pop    %eax
    3497:	5a                   	pop    %edx
    3498:	68 01 04 00 00       	push   $0x401
    349d:	68 00 00 00 00       	push   $0x0
    34a2:	e8 fc ff ff ff       	call   34a3 <module_start+0x63>
    34a7:	5a                   	pop    %edx
    34a8:	59                   	pop    %ecx
    34a9:	68 01 05 00 00       	push   $0x501
    34ae:	68 00 00 00 00       	push   $0x0
    34b3:	e8 fc ff ff ff       	call   34b4 <module_start+0x74>
    34b8:	59                   	pop    %ecx
    34b9:	58                   	pop    %eax
    34ba:	68 01 07 00 00       	push   $0x701
    34bf:	68 00 00 00 00       	push   $0x0
    34c4:	e8 fc ff ff ff       	call   34c5 <module_start+0x85>
    34c9:	58                   	pop    %eax
    34ca:	5a                   	pop    %edx
    34cb:	68 01 50 00 00       	push   $0x5001
    34d0:	68 00 00 00 00       	push   $0x0
    34d5:	e8 fc ff ff ff       	call   34d6 <module_start+0x96>
    34da:	c7 44 24 24 00 00 00 	movl   $0x0,0x24(%esp,1)
    34e1:	00 
    34e2:	c7 44 24 20 00 00 00 	movl   $0x0,0x20(%esp,1)
    34e9:	00 
    34ea:	83 c4 1c             	add    $0x1c,%esp
    34ed:	e9 fc ff ff ff       	jmp    34ee <module_start+0xae>
    34f2:	90                   	nop    
    34f3:	90                   	nop    
    34f4:	90                   	nop    
    34f5:	90                   	nop    
    34f6:	90                   	nop    
    34f7:	90                   	nop    
    34f8:	90                   	nop    
    34f9:	90                   	nop    
    34fa:	90                   	nop    
    34fb:	90                   	nop    
    34fc:	90                   	nop    
    34fd:	90                   	nop    
    34fe:	90                   	nop    
    34ff:	90                   	nop    

00003500 <string_print>:
    3500:	83 ec 0c             	sub    $0xc,%esp
    3503:	8d 54 24 18          	lea    0x18(%esp,1),%edx
    3507:	83 ec 04             	sub    $0x4,%esp
    350a:	52                   	push   %edx
    350b:	8b 44 24 1c          	mov    0x1c(%esp,1),%eax
    350f:	50                   	push   %eax
    3510:	8b 44 24 1c          	mov    0x1c(%esp,1),%eax
    3514:	50                   	push   %eax
    3515:	e8 fc ff ff ff       	call   3516 <string_print+0x16>
    351a:	83 c4 1c             	add    $0x1c,%esp
    351d:	c3                   	ret    
    351e:	89 f6                	mov    %esi,%esi

00003520 <string_print_va>:
    3520:	55                   	push   %ebp
    3521:	57                   	push   %edi
    3522:	56                   	push   %esi
    3523:	53                   	push   %ebx
    3524:	83 ec 6c             	sub    $0x6c,%esp
    3527:	8b 84 24 84 00 00 00 	mov    0x84(%esp,1),%eax
    352e:	c7 44 24 0c 00 00 00 	movl   $0x0,0xc(%esp,1)
    3535:	00 
    3536:	c7 44 24 08 00 00 00 	movl   $0x0,0x8(%esp,1)
    353d:	00 
    353e:	85 c0                	test   %eax,%eax
    3540:	0f 84 3a 05 00 00    	je     3a80 <string_print_va+0x560>
    3546:	8b 84 24 84 00 00 00 	mov    0x84(%esp,1),%eax
    354d:	80 38 00             	cmpb   $0x0,(%eax)
    3550:	74 56                	je     35a8 <string_print_va+0x88>
    3552:	8d b4 26 00 00 00 00 	lea    0x0(%esi,1),%esi
    3559:	8d bc 27 00 00 00 00 	lea    0x0(%edi,1),%edi
    3560:	8b 94 24 84 00 00 00 	mov    0x84(%esp,1),%edx
    3567:	8b 5c 24 0c          	mov    0xc(%esp,1),%ebx
    356b:	80 3c 13 25          	cmpb   $0x25,(%ebx,%edx,1)
    356f:	74 50                	je     35c1 <string_print_va+0xa1>
    3571:	8b ac 24 84 00 00 00 	mov    0x84(%esp,1),%ebp
    3578:	8b 44 24 0c          	mov    0xc(%esp,1),%eax
    357c:	8b 54 24 08          	mov    0x8(%esp,1),%edx
    3580:	8b b4 24 80 00 00 00 	mov    0x80(%esp,1),%esi
    3587:	0f b6 1c 28          	movzbl (%eax,%ebp,1),%ebx
    358b:	88 1c 32             	mov    %bl,(%edx,%esi,1)
    358e:	42                   	inc    %edx
    358f:	89 54 24 08          	mov    %edx,0x8(%esp,1)
    3593:	ff 44 24 0c          	incl   0xc(%esp,1)
    3597:	8b 94 24 84 00 00 00 	mov    0x84(%esp,1),%edx
    359e:	8b 4c 24 0c          	mov    0xc(%esp,1),%ecx
    35a2:	80 3c 11 00          	cmpb   $0x0,(%ecx,%edx,1)
    35a6:	75 b8                	jne    3560 <string_print_va+0x40>
    35a8:	8b 84 24 80 00 00 00 	mov    0x80(%esp,1),%eax
    35af:	8b 7c 24 08          	mov    0x8(%esp,1),%edi
    35b3:	c6 04 07 00          	movb   $0x0,(%edi,%eax,1)
    35b7:	31 c0                	xor    %eax,%eax
    35b9:	83 c4 6c             	add    $0x6c,%esp
    35bc:	5b                   	pop    %ebx
    35bd:	5e                   	pop    %esi
    35be:	5f                   	pop    %edi
    35bf:	5d                   	pop    %ebp
    35c0:	c3                   	ret    
    35c1:	43                   	inc    %ebx
    35c2:	31 ed                	xor    %ebp,%ebp
    35c4:	31 d2                	xor    %edx,%edx
    35c6:	89 5c 24 0c          	mov    %ebx,0xc(%esp,1)
    35ca:	8d b6 00 00 00 00    	lea    0x0(%esi),%esi
    35d0:	8b 9c 24 84 00 00 00 	mov    0x84(%esp,1),%ebx
    35d7:	8b 4c 24 0c          	mov    0xc(%esp,1),%ecx
    35db:	0f b6 04 19          	movzbl (%ecx,%ebx,1),%eax
    35df:	83 e8 20             	sub    $0x20,%eax
    35e2:	83 f8 10             	cmp    $0x10,%eax
    35e5:	0f 87 7d 04 00 00    	ja     3a68 <string_print_va+0x548>
    35eb:	ff 24 85 d0 4e 00 00 	jmp    *0x4ed0(,%eax,4)
    35f2:	83 cd 10             	or     $0x10,%ebp
    35f5:	85 d2                	test   %edx,%edx
    35f7:	0f 84 43 04 00 00    	je     3a40 <string_print_va+0x520>
    35fd:	8b 94 24 84 00 00 00 	mov    0x84(%esp,1),%edx
    3604:	bb ff ff ff ff       	mov    $0xffffffff,%ebx
    3609:	8b 4c 24 0c          	mov    0xc(%esp,1),%ecx
    360d:	89 5c 24 18          	mov    %ebx,0x18(%esp,1)
    3611:	0f b6 04 11          	movzbl (%ecx,%edx,1),%eax
    3615:	2c 30                	sub    $0x30,%al
    3617:	3c 09                	cmp    $0x9,%al
    3619:	77 22                	ja     363d <string_print_va+0x11d>
    361b:	83 ec 04             	sub    $0x4,%esp
    361e:	8d 74 24 20          	lea    0x20(%esp,1),%esi
    3622:	56                   	push   %esi
    3623:	89 d6                	mov    %edx,%esi
    3625:	8d 7c 24 20          	lea    0x20(%esp,1),%edi
    3629:	57                   	push   %edi
    362a:	01 ce                	add    %ecx,%esi
    362c:	56                   	push   %esi
    362d:	e8 fc ff ff ff       	call   362e <string_print_va+0x10e>
    3632:	8b 7c 24 2c          	mov    0x2c(%esp,1),%edi
    3636:	01 7c 24 1c          	add    %edi,0x1c(%esp,1)
    363a:	83 c4 10             	add    $0x10,%esp
    363d:	89 5c 24 10          	mov    %ebx,0x10(%esp,1)
    3641:	8b bc 24 84 00 00 00 	mov    0x84(%esp,1),%edi
    3648:	8b 54 24 0c          	mov    0xc(%esp,1),%edx
    364c:	0f b6 04 3a          	movzbl (%edx,%edi,1),%eax
    3650:	3c 2e                	cmp    $0x2e,%al
    3652:	0f 84 78 03 00 00    	je     39d0 <string_print_va+0x4b0>
    3658:	3c 6c                	cmp    $0x6c,%al
    365a:	0f 84 54 03 00 00    	je     39b4 <string_print_va+0x494>
    3660:	8b bc 24 84 00 00 00 	mov    0x84(%esp,1),%edi
    3667:	8b 4c 24 0c          	mov    0xc(%esp,1),%ecx
    366b:	0f b6 04 39          	movzbl (%ecx,%edi,1),%eax
    366f:	83 e8 25             	sub    $0x25,%eax
    3672:	83 f8 53             	cmp    $0x53,%eax
    3675:	0f 87 18 ff ff ff    	ja     3593 <string_print_va+0x73>
    367b:	ff 24 85 20 4f 00 00 	jmp    *0x4f20(,%eax,4)
    3682:	83 84 24 88 00 00 00 	addl   $0x4,0x88(%esp,1)
    3689:	04 
    368a:	8b 9c 24 88 00 00 00 	mov    0x88(%esp,1),%ebx
    3691:	0f b6 43 fc          	movzbl 0xfffffffc(%ebx),%eax
    3695:	84 c0                	test   %al,%al
    3697:	0f 84 f6 fe ff ff    	je     3593 <string_print_va+0x73>
    369d:	8b 6c 24 08          	mov    0x8(%esp,1),%ebp
    36a1:	8b b4 24 80 00 00 00 	mov    0x80(%esp,1),%esi
    36a8:	88 44 35 00          	mov    %al,0x0(%ebp,%esi,1)
    36ac:	45                   	inc    %ebp
    36ad:	89 6c 24 08          	mov    %ebp,0x8(%esp,1)
    36b1:	e9 dd fe ff ff       	jmp    3593 <string_print_va+0x73>
    36b6:	8b 44 24 08          	mov    0x8(%esp,1),%eax
    36ba:	8b 8c 24 80 00 00 00 	mov    0x80(%esp,1),%ecx
    36c1:	c6 04 08 25          	movb   $0x25,(%eax,%ecx,1)
    36c5:	40                   	inc    %eax
    36c6:	89 44 24 08          	mov    %eax,0x8(%esp,1)
    36ca:	e9 c4 fe ff ff       	jmp    3593 <string_print_va+0x73>
    36cf:	90                   	nop    
    36d0:	83 cd 40             	or     $0x40,%ebp
    36d3:	83 84 24 88 00 00 00 	addl   $0x4,0x88(%esp,1)
    36da:	04 
    36db:	83 e5 40             	and    $0x40,%ebp
    36de:	8b 94 24 88 00 00 00 	mov    0x88(%esp,1),%edx
    36e5:	83 ec 08             	sub    $0x8,%esp
    36e8:	8b 72 fc             	mov    0xfffffffc(%edx),%esi
    36eb:	55                   	push   %ebp
    36ec:	6a 04                	push   $0x4
    36ee:	6a 04                	push   $0x4
    36f0:	89 f3                	mov    %esi,%ebx
    36f2:	c1 eb 10             	shr    $0x10,%ebx
    36f5:	6a 10                	push   $0x10
    36f7:	53                   	push   %ebx
    36f8:	8d 7c 24 3c          	lea    0x3c(%esp,1),%edi
    36fc:	57                   	push   %edi
    36fd:	e8 fc ff ff ff       	call   36fe <string_print_va+0x1de>
    3702:	83 c4 20             	add    $0x20,%esp
    3705:	31 d2                	xor    %edx,%edx
    3707:	89 f9                	mov    %edi,%ecx
    3709:	8d b4 26 00 00 00 00 	lea    0x0(%esi,1),%esi
    3710:	0f b6 04 0a          	movzbl (%edx,%ecx,1),%eax
    3714:	42                   	inc    %edx
    3715:	8b 5c 24 08          	mov    0x8(%esp,1),%ebx
    3719:	8b bc 24 80 00 00 00 	mov    0x80(%esp,1),%edi
    3720:	88 04 3b             	mov    %al,(%ebx,%edi,1)
    3723:	43                   	inc    %ebx
    3724:	83 fa 03             	cmp    $0x3,%edx
    3727:	89 5c 24 08          	mov    %ebx,0x8(%esp,1)
    372b:	7e e3                	jle    3710 <string_print_va+0x1f0>
    372d:	c6 04 3b 3a          	movb   $0x3a,(%ebx,%edi,1)
    3731:	43                   	inc    %ebx
    3732:	89 5c 24 08          	mov    %ebx,0x8(%esp,1)
    3736:	83 ec 08             	sub    $0x8,%esp
    3739:	55                   	push   %ebp
    373a:	89 f5                	mov    %esi,%ebp
    373c:	81 e5 ff ff 00 00    	and    $0xffff,%ebp
    3742:	6a 04                	push   $0x4
    3744:	6a 04                	push   $0x4
    3746:	6a 10                	push   $0x10
    3748:	55                   	push   %ebp
    3749:	8d 74 24 3c          	lea    0x3c(%esp,1),%esi
    374d:	56                   	push   %esi
    374e:	e8 fc ff ff ff       	call   374f <string_print_va+0x22f>
    3753:	83 c4 20             	add    $0x20,%esp
    3756:	31 d2                	xor    %edx,%edx
    3758:	89 f1                	mov    %esi,%ecx
    375a:	8d b6 00 00 00 00    	lea    0x0(%esi),%esi
    3760:	0f b6 04 0a          	movzbl (%edx,%ecx,1),%eax
    3764:	42                   	inc    %edx
    3765:	8b 5c 24 08          	mov    0x8(%esp,1),%ebx
    3769:	8b bc 24 80 00 00 00 	mov    0x80(%esp,1),%edi
    3770:	88 04 3b             	mov    %al,(%ebx,%edi,1)
    3773:	43                   	inc    %ebx
    3774:	83 fa 03             	cmp    $0x3,%edx
    3777:	89 5c 24 08          	mov    %ebx,0x8(%esp,1)
    377b:	7e e3                	jle    3760 <string_print_va+0x240>
    377d:	e9 11 fe ff ff       	jmp    3593 <string_print_va+0x73>
    3782:	83 cd 40             	or     $0x40,%ebp
    3785:	83 ec 08             	sub    $0x8,%esp
    3788:	31 db                	xor    %ebx,%ebx
    378a:	55                   	push   %ebp
    378b:	8b 6c 24 1c          	mov    0x1c(%esp,1),%ebp
    378f:	55                   	push   %ebp
    3790:	8b 44 24 28          	mov    0x28(%esp,1),%eax
    3794:	50                   	push   %eax
    3795:	6a 10                	push   $0x10
    3797:	83 84 24 a0 00 00 00 	addl   $0x4,0xa0(%esp,1)
    379e:	04 
    379f:	8b b4 24 a0 00 00 00 	mov    0xa0(%esp,1),%esi
    37a6:	8b 56 fc             	mov    0xfffffffc(%esi),%edx
    37a9:	52                   	push   %edx
    37aa:	8d 74 24 4c          	lea    0x4c(%esp,1),%esi
    37ae:	56                   	push   %esi
    37af:	e8 fc ff ff ff       	call   37b0 <string_print_va+0x290>
    37b4:	83 c4 20             	add    $0x20,%esp
    37b7:	80 7c 24 30 00       	cmpb   $0x0,0x30(%esp,1)
    37bc:	0f 84 d1 fd ff ff    	je     3593 <string_print_va+0x73>
    37c2:	89 f2                	mov    %esi,%edx
    37c4:	8d b6 00 00 00 00    	lea    0x0(%esi),%esi
    37ca:	8d bf 00 00 00 00    	lea    0x0(%edi),%edi
    37d0:	0f b6 04 13          	movzbl (%ebx,%edx,1),%eax
    37d4:	43                   	inc    %ebx
    37d5:	8b 7c 24 08          	mov    0x8(%esp,1),%edi
    37d9:	8b 8c 24 80 00 00 00 	mov    0x80(%esp,1),%ecx
    37e0:	88 04 0f             	mov    %al,(%edi,%ecx,1)
    37e3:	47                   	inc    %edi
    37e4:	89 7c 24 08          	mov    %edi,0x8(%esp,1)
    37e8:	80 3c 13 00          	cmpb   $0x0,(%ebx,%edx,1)
    37ec:	75 e2                	jne    37d0 <string_print_va+0x2b0>
    37ee:	e9 a0 fd ff ff       	jmp    3593 <string_print_va+0x73>
    37f3:	83 84 24 88 00 00 00 	addl   $0x4,0x88(%esp,1)
    37fa:	04 
    37fb:	83 cd 02             	or     $0x2,%ebp
    37fe:	83 ec 08             	sub    $0x8,%esp
    3801:	55                   	push   %ebp
    3802:	8b 6c 24 1c          	mov    0x1c(%esp,1),%ebp
    3806:	31 db                	xor    %ebx,%ebx
    3808:	55                   	push   %ebp
    3809:	8b 4c 24 28          	mov    0x28(%esp,1),%ecx
    380d:	51                   	push   %ecx
    380e:	6a 0a                	push   $0xa
    3810:	8b 84 24 a0 00 00 00 	mov    0xa0(%esp,1),%eax
    3817:	8b 70 fc             	mov    0xfffffffc(%eax),%esi
    381a:	56                   	push   %esi
    381b:	8d 74 24 6c          	lea    0x6c(%esp,1),%esi
    381f:	56                   	push   %esi
    3820:	e8 fc ff ff ff       	call   3821 <string_print_va+0x301>
    3825:	83 c4 20             	add    $0x20,%esp
    3828:	80 7c 24 50 00       	cmpb   $0x0,0x50(%esp,1)
    382d:	0f 84 60 fd ff ff    	je     3593 <string_print_va+0x73>
    3833:	89 f2                	mov    %esi,%edx
    3835:	8d 74 26 00          	lea    0x0(%esi,1),%esi
    3839:	8d bc 27 00 00 00 00 	lea    0x0(%edi,1),%edi
    3840:	0f b6 04 13          	movzbl (%ebx,%edx,1),%eax
    3844:	43                   	inc    %ebx
    3845:	8b 4c 24 08          	mov    0x8(%esp,1),%ecx
    3849:	8b bc 24 80 00 00 00 	mov    0x80(%esp,1),%edi
    3850:	88 04 39             	mov    %al,(%ecx,%edi,1)
    3853:	41                   	inc    %ecx
    3854:	89 4c 24 08          	mov    %ecx,0x8(%esp,1)
    3858:	80 3c 13 00          	cmpb   $0x0,(%ebx,%edx,1)
    385c:	75 e2                	jne    3840 <string_print_va+0x320>
    385e:	e9 30 fd ff ff       	jmp    3593 <string_print_va+0x73>
    3863:	83 84 24 88 00 00 00 	addl   $0x4,0x88(%esp,1)
    386a:	04 
    386b:	31 f6                	xor    %esi,%esi
    386d:	8b 84 24 88 00 00 00 	mov    0x88(%esp,1),%eax
    3874:	8b 58 fc             	mov    0xfffffffc(%eax),%ebx
    3877:	85 db                	test   %ebx,%ebx
    3879:	0f 84 c1 00 00 00    	je     3940 <string_print_va+0x420>
    387f:	b9 ff ff ff ff       	mov    $0xffffffff,%ecx
    3884:	89 df                	mov    %ebx,%edi
    3886:	89 f0                	mov    %esi,%eax
    3888:	fc                   	cld    
    3889:	f2 ae                	repnz scas %es:(%edi),%al
    388b:	f7 d1                	not    %ecx
    388d:	49                   	dec    %ecx
    388e:	83 e5 10             	and    $0x10,%ebp
    3891:	75 2d                	jne    38c0 <string_print_va+0x3a0>
    3893:	8b 54 24 18          	mov    0x18(%esp,1),%edx
    3897:	39 d1                	cmp    %edx,%ecx
    3899:	7d 25                	jge    38c0 <string_print_va+0x3a0>
    389b:	90                   	nop    
    389c:	8d 74 26 00          	lea    0x0(%esi,1),%esi
    38a0:	8b 44 24 08          	mov    0x8(%esp,1),%eax
    38a4:	8b ac 24 80 00 00 00 	mov    0x80(%esp,1),%ebp
    38ab:	c6 04 28 20          	movb   $0x20,(%eax,%ebp,1)
    38af:	8d 42 ff             	lea    0xffffffff(%edx),%eax
    38b2:	89 c2                	mov    %eax,%edx
    38b4:	ff 44 24 08          	incl   0x8(%esp,1)
    38b8:	39 c1                	cmp    %eax,%ecx
    38ba:	7c e4                	jl     38a0 <string_print_va+0x380>
    38bc:	89 44 24 18          	mov    %eax,0x18(%esp,1)
    38c0:	8b 54 24 10          	mov    0x10(%esp,1),%edx
    38c4:	85 d2                	test   %edx,%edx
    38c6:	7e 6e                	jle    3936 <string_print_va+0x416>
    38c8:	0f b6 03             	movzbl (%ebx),%eax
    38cb:	84 c0                	test   %al,%al
    38cd:	74 31                	je     3900 <string_print_va+0x3e0>
    38cf:	8b 54 24 10          	mov    0x10(%esp,1),%edx
    38d3:	39 d6                	cmp    %edx,%esi
    38d5:	7d 29                	jge    3900 <string_print_va+0x3e0>
    38d7:	89 f6                	mov    %esi,%esi
    38d9:	8d bc 27 00 00 00 00 	lea    0x0(%edi,1),%edi
    38e0:	8b 6c 24 08          	mov    0x8(%esp,1),%ebp
    38e4:	46                   	inc    %esi
    38e5:	8b bc 24 80 00 00 00 	mov    0x80(%esp,1),%edi
    38ec:	88 44 3d 00          	mov    %al,0x0(%ebp,%edi,1)
    38f0:	ff 44 24 08          	incl   0x8(%esp,1)
    38f4:	0f b6 04 1e          	movzbl (%esi,%ebx,1),%eax
    38f8:	84 c0                	test   %al,%al
    38fa:	74 04                	je     3900 <string_print_va+0x3e0>
    38fc:	39 d6                	cmp    %edx,%esi
    38fe:	7c e0                	jl     38e0 <string_print_va+0x3c0>
    3900:	3b 4c 24 18          	cmp    0x18(%esp,1),%ecx
    3904:	0f 8d 89 fc ff ff    	jge    3593 <string_print_va+0x73>
    390a:	8d b6 00 00 00 00    	lea    0x0(%esi),%esi
    3910:	8b 7c 24 08          	mov    0x8(%esp,1),%edi
    3914:	8b 84 24 80 00 00 00 	mov    0x80(%esp,1),%eax
    391b:	c6 04 07 20          	movb   $0x20,(%edi,%eax,1)
    391f:	47                   	inc    %edi
    3920:	8b 44 24 18          	mov    0x18(%esp,1),%eax
    3924:	89 7c 24 08          	mov    %edi,0x8(%esp,1)
    3928:	48                   	dec    %eax
    3929:	39 c1                	cmp    %eax,%ecx
    392b:	89 44 24 18          	mov    %eax,0x18(%esp,1)
    392f:	7c df                	jl     3910 <string_print_va+0x3f0>
    3931:	e9 5d fc ff ff       	jmp    3593 <string_print_va+0x73>
    3936:	89 4c 24 10          	mov    %ecx,0x10(%esp,1)
    393a:	eb 8c                	jmp    38c8 <string_print_va+0x3a8>
    393c:	8d 74 26 00          	lea    0x0(%esi,1),%esi
    3940:	bb c0 4e 00 00       	mov    $0x4ec0,%ebx
    3945:	e9 35 ff ff ff       	jmp    387f <string_print_va+0x35f>
    394a:	8d b6 00 00 00 00    	lea    0x0(%esi),%esi
    3950:	83 ec 08             	sub    $0x8,%esp
    3953:	31 db                	xor    %ebx,%ebx
    3955:	55                   	push   %ebp
    3956:	8b 44 24 1c          	mov    0x1c(%esp,1),%eax
    395a:	50                   	push   %eax
    395b:	8b 44 24 28          	mov    0x28(%esp,1),%eax
    395f:	50                   	push   %eax
    3960:	6a 0a                	push   $0xa
    3962:	83 84 24 a0 00 00 00 	addl   $0x4,0xa0(%esp,1)
    3969:	04 
    396a:	8b b4 24 a0 00 00 00 	mov    0xa0(%esp,1),%esi
    3971:	8b 56 fc             	mov    0xfffffffc(%esi),%edx
    3974:	52                   	push   %edx
    3975:	8d 74 24 5c          	lea    0x5c(%esp,1),%esi
    3979:	56                   	push   %esi
    397a:	e8 fc ff ff ff       	call   397b <string_print_va+0x45b>
    397f:	83 c4 20             	add    $0x20,%esp
    3982:	80 7c 24 40 00       	cmpb   $0x0,0x40(%esp,1)
    3987:	0f 84 06 fc ff ff    	je     3593 <string_print_va+0x73>
    398d:	89 f2                	mov    %esi,%edx
    398f:	90                   	nop    
    3990:	0f b6 0c 13          	movzbl (%ebx,%edx,1),%ecx
    3994:	43                   	inc    %ebx
    3995:	8b 6c 24 08          	mov    0x8(%esp,1),%ebp
    3999:	8b bc 24 80 00 00 00 	mov    0x80(%esp,1),%edi
    39a0:	88 4c 3d 00          	mov    %cl,0x0(%ebp,%edi,1)
    39a4:	45                   	inc    %ebp
    39a5:	89 6c 24 08          	mov    %ebp,0x8(%esp,1)
    39a9:	80 3c 13 00          	cmpb   $0x0,(%ebx,%edx,1)
    39ad:	75 e1                	jne    3990 <string_print_va+0x470>
    39af:	e9 df fb ff ff       	jmp    3593 <string_print_va+0x73>
    39b4:	ff 44 24 0c          	incl   0xc(%esp,1)
    39b8:	8b 94 24 84 00 00 00 	mov    0x84(%esp,1),%edx
    39bf:	8b 44 24 0c          	mov    0xc(%esp,1),%eax
    39c3:	80 3c 10 6c          	cmpb   $0x6c,(%eax,%edx,1)
    39c7:	0f 85 93 fc ff ff    	jne    3660 <string_print_va+0x140>
    39cd:	eb e5                	jmp    39b4 <string_print_va+0x494>
    39cf:	90                   	nop    
    39d0:	42                   	inc    %edx
    39d1:	89 54 24 0c          	mov    %edx,0xc(%esp,1)
    39d5:	0f b6 0c 3a          	movzbl (%edx,%edi,1),%ecx
    39d9:	80 e9 30             	sub    $0x30,%cl
    39dc:	80 f9 09             	cmp    $0x9,%cl
    39df:	77 22                	ja     3a03 <string_print_va+0x4e3>
    39e1:	83 ec 04             	sub    $0x4,%esp
    39e4:	8d 4c 24 18          	lea    0x18(%esp,1),%ecx
    39e8:	89 fb                	mov    %edi,%ebx
    39ea:	51                   	push   %ecx
    39eb:	8d 74 24 18          	lea    0x18(%esp,1),%esi
    39ef:	01 d3                	add    %edx,%ebx
    39f1:	56                   	push   %esi
    39f2:	53                   	push   %ebx
    39f3:	e8 fc ff ff ff       	call   39f4 <string_print_va+0x4d4>
    39f8:	8b 44 24 24          	mov    0x24(%esp,1),%eax
    39fc:	01 44 24 1c          	add    %eax,0x1c(%esp,1)
    3a00:	83 c4 10             	add    $0x10,%esp
    3a03:	8b 44 24 10          	mov    0x10(%esp,1),%eax
    3a07:	85 c0                	test   %eax,%eax
    3a09:	78 15                	js     3a20 <string_print_va+0x500>
    3a0b:	8b b4 24 84 00 00 00 	mov    0x84(%esp,1),%esi
    3a12:	8b 5c 24 0c          	mov    0xc(%esp,1),%ebx
    3a16:	0f b6 04 33          	movzbl (%ebx,%esi,1),%eax
    3a1a:	e9 39 fc ff ff       	jmp    3658 <string_print_va+0x138>
    3a1f:	90                   	nop    
    3a20:	c7 44 24 10 00 00 00 	movl   $0x0,0x10(%esp,1)
    3a27:	00 
    3a28:	8b bc 24 84 00 00 00 	mov    0x84(%esp,1),%edi
    3a2f:	8b 54 24 0c          	mov    0xc(%esp,1),%edx
    3a33:	0f b6 04 3a          	movzbl (%edx,%edi,1),%eax
    3a37:	e9 1c fc ff ff       	jmp    3658 <string_print_va+0x138>
    3a3c:	8d 74 26 00          	lea    0x0(%esi,1),%esi
    3a40:	ff 44 24 0c          	incl   0xc(%esp,1)
    3a44:	e9 87 fb ff ff       	jmp    35d0 <string_print_va+0xb0>
    3a49:	8d b4 26 00 00 00 00 	lea    0x0(%esi,1),%esi
    3a50:	83 cd 08             	or     $0x8,%ebp
    3a53:	e9 9d fb ff ff       	jmp    35f5 <string_print_va+0xd5>
    3a58:	83 cd 20             	or     $0x20,%ebp
    3a5b:	e9 95 fb ff ff       	jmp    35f5 <string_print_va+0xd5>
    3a60:	83 cd 04             	or     $0x4,%ebp
    3a63:	e9 8d fb ff ff       	jmp    35f5 <string_print_va+0xd5>
    3a68:	ba 01 00 00 00       	mov    $0x1,%edx
    3a6d:	e9 83 fb ff ff       	jmp    35f5 <string_print_va+0xd5>
    3a72:	83 cd 01             	or     $0x1,%ebp
    3a75:	e9 7b fb ff ff       	jmp    35f5 <string_print_va+0xd5>
    3a7a:	8d b6 00 00 00 00    	lea    0x0(%esi),%esi
    3a80:	8b 84 24 80 00 00 00 	mov    0x80(%esp,1),%eax
    3a87:	c6 00 00             	movb   $0x0,(%eax)
    3a8a:	b8 01 00 00 00       	mov    $0x1,%eax
    3a8f:	e9 25 fb ff ff       	jmp    35b9 <string_print_va+0x99>
    3a94:	8d b6 00 00 00 00    	lea    0x0(%esi),%esi
    3a9a:	8d bf 00 00 00 00    	lea    0x0(%edi),%edi

00003aa0 <string_scan>:
    3aa0:	83 ec 0c             	sub    $0xc,%esp
    3aa3:	8d 54 24 18          	lea    0x18(%esp,1),%edx
    3aa7:	83 ec 04             	sub    $0x4,%esp
    3aaa:	52                   	push   %edx
    3aab:	8b 44 24 1c          	mov    0x1c(%esp,1),%eax
    3aaf:	50                   	push   %eax
    3ab0:	8b 44 24 1c          	mov    0x1c(%esp,1),%eax
    3ab4:	50                   	push   %eax
    3ab5:	e8 fc ff ff ff       	call   3ab6 <string_scan+0x16>
    3aba:	83 c4 1c             	add    $0x1c,%esp
    3abd:	c3                   	ret    
    3abe:	89 f6                	mov    %esi,%esi

00003ac0 <string_scan_va>:
    3ac0:	55                   	push   %ebp
    3ac1:	57                   	push   %edi
    3ac2:	56                   	push   %esi
    3ac3:	53                   	push   %ebx
    3ac4:	31 db                	xor    %ebx,%ebx
    3ac6:	83 ec 3c             	sub    $0x3c,%esp
    3ac9:	c7 44 24 14 00 00 00 	movl   $0x0,0x14(%esp,1)
    3ad0:	00 
    3ad1:	8b 4c 24 54          	mov    0x54(%esp,1),%ecx
    3ad5:	8b 7c 24 50          	mov    0x50(%esp,1),%edi
    3ad9:	c7 44 24 10 00 00 00 	movl   $0x0,0x10(%esp,1)
    3ae0:	00 
    3ae1:	8b 74 24 58          	mov    0x58(%esp,1),%esi
    3ae5:	c7 44 24 0c 00 00 00 	movl   $0x0,0xc(%esp,1)
    3aec:	00 
    3aed:	c7 44 24 2c 00 00 00 	movl   $0x0,0x2c(%esp,1)
    3af4:	00 
    3af5:	c7 44 24 08 00 00 00 	movl   $0x0,0x8(%esp,1)
    3afc:	00 
    3afd:	eb 60                	jmp    3b5f <string_scan_va+0x9f>
    3aff:	90                   	nop    
    3b00:	3c 25                	cmp    $0x25,%al
    3b02:	0f 84 6c 03 00 00    	je     3e74 <string_scan_va+0x3b4>
    3b08:	85 db                	test   %ebx,%ebx
    3b0a:	74 4b                	je     3b57 <string_scan_va+0x97>
    3b0c:	8b 4c 24 54          	mov    0x54(%esp,1),%ecx
    3b10:	0f b6 01             	movzbl (%ecx),%eax
    3b13:	83 e8 2a             	sub    $0x2a,%eax
    3b16:	83 f8 4e             	cmp    $0x4e,%eax
    3b19:	0f 87 f9 02 00 00    	ja     3e18 <string_scan_va+0x358>
    3b1f:	ff 24 85 b0 50 00 00 	jmp    *0x50b0(,%eax,4)
    3b26:	85 db                	test   %ebx,%ebx
    3b28:	74 2d                	je     3b57 <string_scan_va+0x97>
    3b2a:	8d 4c 24 30          	lea    0x30(%esp,1),%ecx
    3b2e:	51                   	push   %ecx
    3b2f:	6a 0a                	push   $0xa
    3b31:	8d 6c 24 34          	lea    0x34(%esp,1),%ebp
    3b35:	55                   	push   %ebp
    3b36:	8b 44 24 60          	mov    0x60(%esp,1),%eax
    3b3a:	50                   	push   %eax
    3b3b:	e8 fc ff ff ff       	call   3b3c <string_scan_va+0x7c>
    3b40:	83 4c 24 18 04       	orl    $0x4,0x18(%esp,1)
    3b45:	8b 44 24 64          	mov    0x64(%esp,1),%eax
    3b49:	8b 54 24 40          	mov    0x40(%esp,1),%edx
    3b4d:	01 d0                	add    %edx,%eax
    3b4f:	48                   	dec    %eax
    3b50:	89 44 24 64          	mov    %eax,0x64(%esp,1)
    3b54:	83 c4 10             	add    $0x10,%esp
    3b57:	ff 44 24 54          	incl   0x54(%esp,1)
    3b5b:	8b 4c 24 54          	mov    0x54(%esp,1),%ecx
    3b5f:	0f b6 01             	movzbl (%ecx),%eax
    3b62:	84 c0                	test   %al,%al
    3b64:	75 9a                	jne    3b00 <string_scan_va+0x40>
    3b66:	8b 44 24 14          	mov    0x14(%esp,1),%eax
    3b6a:	83 c4 3c             	add    $0x3c,%esp
    3b6d:	5b                   	pop    %ebx
    3b6e:	5e                   	pop    %esi
    3b6f:	5f                   	pop    %edi
    3b70:	5d                   	pop    %ebp
    3b71:	c3                   	ret    
    3b72:	c7 44 24 0c 01 00 00 	movl   $0x1,0xc(%esp,1)
    3b79:	00 
    3b7a:	eb db                	jmp    3b57 <string_scan_va+0x97>
    3b7c:	8d 74 26 00          	lea    0x0(%esi,1),%esi
    3b80:	0f b6 1f             	movzbl (%edi),%ebx
    3b83:	83 c6 04             	add    $0x4,%esi
    3b86:	8b 56 fc             	mov    0xfffffffc(%esi),%edx
    3b89:	47                   	inc    %edi
    3b8a:	88 1a                	mov    %bl,(%edx)
    3b8c:	e9 a9 01 00 00       	jmp    3d3a <string_scan_va+0x27a>
    3b91:	83 ec 08             	sub    $0x8,%esp
    3b94:	68 70 50 00 00       	push   $0x5070
    3b99:	57                   	push   %edi
    3b9a:	e8 fc ff ff ff       	call   3b9b <string_scan_va+0xdb>
    3b9f:	83 c4 0c             	add    $0xc,%esp
    3ba2:	8d 4c 24 34          	lea    0x34(%esp,1),%ecx
    3ba6:	89 c7                	mov    %eax,%edi
    3ba8:	51                   	push   %ecx
    3ba9:	8d 6c 24 20          	lea    0x20(%esp,1),%ebp
    3bad:	55                   	push   %ebp
    3bae:	57                   	push   %edi
    3baf:	e8 fc ff ff ff       	call   3bb0 <string_scan_va+0xf0>
    3bb4:	8b 54 24 40          	mov    0x40(%esp,1),%edx
    3bb8:	83 c4 10             	add    $0x10,%esp
    3bbb:	8b 44 24 0c          	mov    0xc(%esp,1),%eax
    3bbf:	01 d7                	add    %edx,%edi
    3bc1:	85 c0                	test   %eax,%eax
    3bc3:	0f 85 4f 02 00 00    	jne    3e18 <string_scan_va+0x358>
    3bc9:	83 7c 24 10 01       	cmpl   $0x1,0x10(%esp,1)
    3bce:	74 53                	je     3c23 <string_scan_va+0x163>
    3bd0:	83 7c 24 10 01       	cmpl   $0x1,0x10(%esp,1)
    3bd5:	7f 29                	jg     3c00 <string_scan_va+0x140>
    3bd7:	8b 5c 24 10          	mov    0x10(%esp,1),%ebx
    3bdb:	85 db                	test   %ebx,%ebx
    3bdd:	0f 85 53 02 00 00    	jne    3e36 <string_scan_va+0x376>
    3be3:	83 c6 04             	add    $0x4,%esi
    3be6:	8b 44 24 18          	mov    0x18(%esp,1),%eax
    3bea:	8b 6e fc             	mov    0xfffffffc(%esi),%ebp
    3bed:	8b 4c 24 1c          	mov    0x1c(%esp,1),%ecx
    3bf1:	89 45 00             	mov    %eax,0x0(%ebp)
    3bf4:	89 4d 04             	mov    %ecx,0x4(%ebp)
    3bf7:	e9 3a 02 00 00       	jmp    3e36 <string_scan_va+0x376>
    3bfc:	8d 74 26 00          	lea    0x0(%esi,1),%esi
    3c00:	83 7c 24 10 02       	cmpl   $0x2,0x10(%esp,1)
    3c05:	0f 85 2b 02 00 00    	jne    3e36 <string_scan_va+0x376>
    3c0b:	83 c6 04             	add    $0x4,%esi
    3c0e:	8b 44 24 18          	mov    0x18(%esp,1),%eax
    3c12:	8b 5e fc             	mov    0xfffffffc(%esi),%ebx
    3c15:	8b 6c 24 1c          	mov    0x1c(%esp,1),%ebp
    3c19:	89 03                	mov    %eax,(%ebx)
    3c1b:	89 6b 04             	mov    %ebp,0x4(%ebx)
    3c1e:	e9 13 02 00 00       	jmp    3e36 <string_scan_va+0x376>
    3c23:	dd 44 24 18          	fldl   0x18(%esp,1)
    3c27:	83 c6 04             	add    $0x4,%esi
    3c2a:	8b 46 fc             	mov    0xfffffffc(%esi),%eax
    3c2d:	d9 18                	fstps  (%eax)
    3c2f:	e9 02 02 00 00       	jmp    3e36 <string_scan_va+0x376>
    3c34:	83 ec 08             	sub    $0x8,%esp
    3c37:	68 7f 50 00 00       	push   $0x507f
    3c3c:	57                   	push   %edi
    3c3d:	e8 fc ff ff ff       	call   3c3e <string_scan_va+0x17e>
    3c42:	8d 54 24 40          	lea    0x40(%esp,1),%edx
    3c46:	89 c7                	mov    %eax,%edi
    3c48:	52                   	push   %edx
    3c49:	6a 0a                	push   $0xa
    3c4b:	8d 6c 24 40          	lea    0x40(%esp,1),%ebp
    3c4f:	55                   	push   %ebp
    3c50:	57                   	push   %edi
    3c51:	e8 fc ff ff ff       	call   3c52 <string_scan_va+0x192>
    3c56:	8b 5c 24 50          	mov    0x50(%esp,1),%ebx
    3c5a:	83 c4 20             	add    $0x20,%esp
    3c5d:	8b 44 24 0c          	mov    0xc(%esp,1),%eax
    3c61:	01 df                	add    %ebx,%edi
    3c63:	85 c0                	test   %eax,%eax
    3c65:	0f 85 ad 01 00 00    	jne    3e18 <string_scan_va+0x358>
    3c6b:	83 7c 24 10 01       	cmpl   $0x1,0x10(%esp,1)
    3c70:	74 40                	je     3cb2 <string_scan_va+0x1f2>
    3c72:	83 7c 24 10 01       	cmpl   $0x1,0x10(%esp,1)
    3c77:	7f 1d                	jg     3c96 <string_scan_va+0x1d6>
    3c79:	8b 44 24 10          	mov    0x10(%esp,1),%eax
    3c7d:	85 c0                	test   %eax,%eax
    3c7f:	0f 85 b1 01 00 00    	jne    3e36 <string_scan_va+0x376>
    3c85:	83 c6 04             	add    $0x4,%esi
    3c88:	8b 4e fc             	mov    0xfffffffc(%esi),%ecx
    3c8b:	8b 44 24 28          	mov    0x28(%esp,1),%eax
    3c8f:	89 01                	mov    %eax,(%ecx)
    3c91:	e9 a0 01 00 00       	jmp    3e36 <string_scan_va+0x376>
    3c96:	83 7c 24 10 02       	cmpl   $0x2,0x10(%esp,1)
    3c9b:	0f 85 95 01 00 00    	jne    3e36 <string_scan_va+0x376>
    3ca1:	83 c6 04             	add    $0x4,%esi
    3ca4:	8b 5e fc             	mov    0xfffffffc(%esi),%ebx
    3ca7:	8b 44 24 28          	mov    0x28(%esp,1),%eax
    3cab:	89 03                	mov    %eax,(%ebx)
    3cad:	e9 84 01 00 00       	jmp    3e36 <string_scan_va+0x376>
    3cb2:	83 c6 04             	add    $0x4,%esi
    3cb5:	8b 6e fc             	mov    0xfffffffc(%esi),%ebp
    3cb8:	8b 44 24 28          	mov    0x28(%esp,1),%eax
    3cbc:	66 89 45 00          	mov    %ax,0x0(%ebp)
    3cc0:	e9 71 01 00 00       	jmp    3e36 <string_scan_va+0x376>
    3cc5:	c7 44 24 10 02 00 00 	movl   $0x2,0x10(%esp,1)
    3ccc:	00 
    3ccd:	e9 85 fe ff ff       	jmp    3b57 <string_scan_va+0x97>
    3cd2:	c7 44 24 10 01 00 00 	movl   $0x1,0x10(%esp,1)
    3cd9:	00 
    3cda:	e9 78 fe ff ff       	jmp    3b57 <string_scan_va+0x97>
    3cdf:	90                   	nop    
    3ce0:	83 c6 04             	add    $0x4,%esi
    3ce3:	8b 5e fc             	mov    0xfffffffc(%esi),%ebx
    3ce6:	8d 76 00             	lea    0x0(%esi),%esi
    3ce9:	8d bc 27 00 00 00 00 	lea    0x0(%edi,1),%edi
    3cf0:	0f b6 07             	movzbl (%edi),%eax
    3cf3:	84 c0                	test   %al,%al
    3cf5:	74 1c                	je     3d13 <string_scan_va+0x253>
    3cf7:	83 ec 0c             	sub    $0xc,%esp
    3cfa:	0f b6 e8             	movzbl %al,%ebp
    3cfd:	55                   	push   %ebp
    3cfe:	e8 fc ff ff ff       	call   3cff <string_scan_va+0x23f>
    3d03:	83 c4 10             	add    $0x10,%esp
    3d06:	85 c0                	test   %eax,%eax
    3d08:	74 06                	je     3d10 <string_scan_va+0x250>
    3d0a:	47                   	inc    %edi
    3d0b:	eb e3                	jmp    3cf0 <string_scan_va+0x230>
    3d0d:	8d 76 00             	lea    0x0(%esi),%esi
    3d10:	0f b6 07             	movzbl (%edi),%eax
    3d13:	31 ed                	xor    %ebp,%ebp
    3d15:	8d 74 26 00          	lea    0x0(%esi,1),%esi
    3d19:	8d bc 27 00 00 00 00 	lea    0x0(%edi,1),%edi
    3d20:	84 c0                	test   %al,%al
    3d22:	74 13                	je     3d37 <string_scan_va+0x277>
    3d24:	0f b6 0f             	movzbl (%edi),%ecx
    3d27:	83 ec 0c             	sub    $0xc,%esp
    3d2a:	51                   	push   %ecx
    3d2b:	e8 fc ff ff ff       	call   3d2c <string_scan_va+0x26c>
    3d30:	83 c4 10             	add    $0x10,%esp
    3d33:	85 c0                	test   %eax,%eax
    3d35:	74 0e                	je     3d45 <string_scan_va+0x285>
    3d37:	c6 03 00             	movb   $0x0,(%ebx)
    3d3a:	31 db                	xor    %ebx,%ebx
    3d3c:	ff 44 24 14          	incl   0x14(%esp,1)
    3d40:	e9 12 fe ff ff       	jmp    3b57 <string_scan_va+0x97>
    3d45:	f7 44 24 08 04 00 00 	testl  $0x4,0x8(%esp,1)
    3d4c:	00 
    3d4d:	74 13                	je     3d62 <string_scan_va+0x2a2>
    3d4f:	3b 6c 24 2c          	cmp    0x2c(%esp,1),%ebp
    3d53:	7d 07                	jge    3d5c <string_scan_va+0x29c>
    3d55:	0f b6 17             	movzbl (%edi),%edx
    3d58:	45                   	inc    %ebp
    3d59:	88 13                	mov    %dl,(%ebx)
    3d5b:	43                   	inc    %ebx
    3d5c:	47                   	inc    %edi
    3d5d:	0f b6 07             	movzbl (%edi),%eax
    3d60:	eb be                	jmp    3d20 <string_scan_va+0x260>
    3d62:	0f b6 0f             	movzbl (%edi),%ecx
    3d65:	88 0b                	mov    %cl,(%ebx)
    3d67:	eb f2                	jmp    3d5b <string_scan_va+0x29b>
    3d69:	8d b4 26 00 00 00 00 	lea    0x0(%esi,1),%esi
    3d70:	83 ec 08             	sub    $0x8,%esp
    3d73:	68 8c 50 00 00       	push   $0x508c
    3d78:	57                   	push   %edi
    3d79:	e8 fc ff ff ff       	call   3d7a <string_scan_va+0x2ba>
    3d7e:	8d 5c 24 40          	lea    0x40(%esp,1),%ebx
    3d82:	89 c7                	mov    %eax,%edi
    3d84:	53                   	push   %ebx
    3d85:	6a 0a                	push   $0xa
    3d87:	8d 4c 24 3c          	lea    0x3c(%esp,1),%ecx
    3d8b:	51                   	push   %ecx
    3d8c:	57                   	push   %edi
    3d8d:	e8 fc ff ff ff       	call   3d8e <string_scan_va+0x2ce>
    3d92:	8b 54 24 50          	mov    0x50(%esp,1),%edx
    3d96:	83 c4 20             	add    $0x20,%esp
    3d99:	8b 44 24 0c          	mov    0xc(%esp,1),%eax
    3d9d:	01 d7                	add    %edx,%edi
    3d9f:	85 c0                	test   %eax,%eax
    3da1:	75 75                	jne    3e18 <string_scan_va+0x358>
    3da3:	83 7c 24 10 01       	cmpl   $0x1,0x10(%esp,1)
    3da8:	74 2b                	je     3dd5 <string_scan_va+0x315>
    3daa:	83 7c 24 10 01       	cmpl   $0x1,0x10(%esp,1)
    3daf:	7f 0f                	jg     3dc0 <string_scan_va+0x300>
    3db1:	8b 6c 24 10          	mov    0x10(%esp,1),%ebp
    3db5:	85 ed                	test   %ebp,%ebp
    3db7:	0f 84 9a 00 00 00    	je     3e57 <string_scan_va+0x397>
    3dbd:	eb 77                	jmp    3e36 <string_scan_va+0x376>
    3dbf:	90                   	nop    
    3dc0:	83 7c 24 10 02       	cmpl   $0x2,0x10(%esp,1)
    3dc5:	75 6f                	jne    3e36 <string_scan_va+0x376>
    3dc7:	83 c6 04             	add    $0x4,%esi
    3dca:	8b 5e fc             	mov    0xfffffffc(%esi),%ebx
    3dcd:	8b 44 24 24          	mov    0x24(%esp,1),%eax
    3dd1:	89 03                	mov    %eax,(%ebx)
    3dd3:	eb 61                	jmp    3e36 <string_scan_va+0x376>
    3dd5:	83 c6 04             	add    $0x4,%esi
    3dd8:	8b 6e fc             	mov    0xfffffffc(%esi),%ebp
    3ddb:	8b 44 24 24          	mov    0x24(%esp,1),%eax
    3ddf:	66 89 45 00          	mov    %ax,0x0(%ebp)
    3de3:	eb 51                	jmp    3e36 <string_scan_va+0x376>
    3de5:	83 ec 08             	sub    $0x8,%esp
    3de8:	68 97 50 00 00       	push   $0x5097
    3ded:	57                   	push   %edi
    3dee:	e8 fc ff ff ff       	call   3def <string_scan_va+0x32f>
    3df3:	8d 4c 24 40          	lea    0x40(%esp,1),%ecx
    3df7:	89 c7                	mov    %eax,%edi
    3df9:	51                   	push   %ecx
    3dfa:	6a 10                	push   $0x10
    3dfc:	8d 54 24 3c          	lea    0x3c(%esp,1),%edx
    3e00:	52                   	push   %edx
    3e01:	57                   	push   %edi
    3e02:	e8 fc ff ff ff       	call   3e03 <string_scan_va+0x343>
    3e07:	8b 44 24 50          	mov    0x50(%esp,1),%eax
    3e0b:	83 c4 20             	add    $0x20,%esp
    3e0e:	01 c7                	add    %eax,%edi
    3e10:	8b 44 24 0c          	mov    0xc(%esp,1),%eax
    3e14:	85 c0                	test   %eax,%eax
    3e16:	74 08                	je     3e20 <string_scan_va+0x360>
    3e18:	31 db                	xor    %ebx,%ebx
    3e1a:	e9 38 fd ff ff       	jmp    3b57 <string_scan_va+0x97>
    3e1f:	90                   	nop    
    3e20:	83 7c 24 10 01       	cmpl   $0x1,0x10(%esp,1)
    3e25:	74 3e                	je     3e65 <string_scan_va+0x3a5>
    3e27:	83 7c 24 10 01       	cmpl   $0x1,0x10(%esp,1)
    3e2c:	7f 22                	jg     3e50 <string_scan_va+0x390>
    3e2e:	8b 5c 24 10          	mov    0x10(%esp,1),%ebx
    3e32:	85 db                	test   %ebx,%ebx
    3e34:	74 0a                	je     3e40 <string_scan_va+0x380>
    3e36:	ff 44 24 14          	incl   0x14(%esp,1)
    3e3a:	eb dc                	jmp    3e18 <string_scan_va+0x358>
    3e3c:	8d 74 26 00          	lea    0x0(%esi,1),%esi
    3e40:	83 c6 04             	add    $0x4,%esi
    3e43:	8b 6e fc             	mov    0xfffffffc(%esi),%ebp
    3e46:	8b 44 24 24          	mov    0x24(%esp,1),%eax
    3e4a:	89 45 00             	mov    %eax,0x0(%ebp)
    3e4d:	eb e7                	jmp    3e36 <string_scan_va+0x376>
    3e4f:	90                   	nop    
    3e50:	83 7c 24 10 02       	cmpl   $0x2,0x10(%esp,1)
    3e55:	75 df                	jne    3e36 <string_scan_va+0x376>
    3e57:	83 c6 04             	add    $0x4,%esi
    3e5a:	8b 4e fc             	mov    0xfffffffc(%esi),%ecx
    3e5d:	8b 44 24 24          	mov    0x24(%esp,1),%eax
    3e61:	89 01                	mov    %eax,(%ecx)
    3e63:	eb d1                	jmp    3e36 <string_scan_va+0x376>
    3e65:	83 c6 04             	add    $0x4,%esi
    3e68:	8b 5e fc             	mov    0xfffffffc(%esi),%ebx
    3e6b:	8b 44 24 24          	mov    0x24(%esp,1),%eax
    3e6f:	66 89 03             	mov    %ax,(%ebx)
    3e72:	eb c2                	jmp    3e36 <string_scan_va+0x376>
    3e74:	ff 44 24 54          	incl   0x54(%esp,1)
    3e78:	bb 01 00 00 00       	mov    $0x1,%ebx
    3e7d:	c7 44 24 10 00 00 00 	movl   $0x0,0x10(%esp,1)
    3e84:	00 
    3e85:	c7 44 24 0c 00 00 00 	movl   $0x0,0xc(%esp,1)
    3e8c:	00 
    3e8d:	c7 44 24 2c 00 00 00 	movl   $0x0,0x2c(%esp,1)
    3e94:	00 
    3e95:	c7 44 24 08 00 00 00 	movl   $0x0,0x8(%esp,1)
    3e9c:	00 
    3e9d:	e9 6a fc ff ff       	jmp    3b0c <string_scan_va+0x4c>
    3ea2:	90                   	nop    
    3ea3:	90                   	nop    
    3ea4:	90                   	nop    
    3ea5:	90                   	nop    
    3ea6:	90                   	nop    
    3ea7:	90                   	nop    
    3ea8:	90                   	nop    
    3ea9:	90                   	nop    
    3eaa:	90                   	nop    
    3eab:	90                   	nop    
    3eac:	90                   	nop    
    3ead:	90                   	nop    
    3eae:	90                   	nop    
    3eaf:	90                   	nop    

00003eb0 <string_pbrk>:
    3eb0:	56                   	push   %esi
    3eb1:	53                   	push   %ebx
    3eb2:	8b 5c 24 0c          	mov    0xc(%esp,1),%ebx
    3eb6:	8b 74 24 10          	mov    0x10(%esp,1),%esi
    3eba:	0f b6 0b             	movzbl (%ebx),%ecx
    3ebd:	84 c9                	test   %cl,%cl
    3ebf:	74 29                	je     3eea <string_pbrk+0x3a>
    3ec1:	eb 0d                	jmp    3ed0 <string_pbrk+0x20>
    3ec3:	90                   	nop    
    3ec4:	90                   	nop    
    3ec5:	90                   	nop    
    3ec6:	90                   	nop    
    3ec7:	90                   	nop    
    3ec8:	90                   	nop    
    3ec9:	90                   	nop    
    3eca:	90                   	nop    
    3ecb:	90                   	nop    
    3ecc:	90                   	nop    
    3ecd:	90                   	nop    
    3ece:	90                   	nop    
    3ecf:	90                   	nop    
    3ed0:	89 f2                	mov    %esi,%edx
    3ed2:	eb 05                	jmp    3ed9 <string_pbrk+0x29>
    3ed4:	38 c1                	cmp    %al,%cl
    3ed6:	74 18                	je     3ef0 <string_pbrk+0x40>
    3ed8:	42                   	inc    %edx
    3ed9:	0f b6 02             	movzbl (%edx),%eax
    3edc:	84 c0                	test   %al,%al
    3ede:	75 f4                	jne    3ed4 <string_pbrk+0x24>
    3ee0:	43                   	inc    %ebx
    3ee1:	0f b6 13             	movzbl (%ebx),%edx
    3ee4:	88 d1                	mov    %dl,%cl
    3ee6:	84 c9                	test   %cl,%cl
    3ee8:	75 e6                	jne    3ed0 <string_pbrk+0x20>
    3eea:	31 c0                	xor    %eax,%eax
    3eec:	5b                   	pop    %ebx
    3eed:	5e                   	pop    %esi
    3eee:	c3                   	ret    
    3eef:	90                   	nop    
    3ef0:	89 d8                	mov    %ebx,%eax
    3ef2:	eb f8                	jmp    3eec <string_pbrk+0x3c>
    3ef4:	8d b6 00 00 00 00    	lea    0x0(%esi),%esi
    3efa:	8d bf 00 00 00 00    	lea    0x0(%edi),%edi

00003f00 <string_tok>:
    3f00:	55                   	push   %ebp
    3f01:	57                   	push   %edi
    3f02:	56                   	push   %esi
    3f03:	53                   	push   %ebx
    3f04:	83 ec 04             	sub    $0x4,%esp
    3f07:	8b 74 24 18          	mov    0x18(%esp,1),%esi
    3f0b:	8b 6c 24 1c          	mov    0x1c(%esp,1),%ebp
    3f0f:	85 f6                	test   %esi,%esi
    3f11:	0f 84 bd 00 00 00    	je     3fd4 <string_tok+0xd4>
    3f17:	31 ff                	xor    %edi,%edi
    3f19:	89 f3                	mov    %esi,%ebx
    3f1b:	80 3e 00             	cmpb   $0x0,(%esi)
    3f1e:	74 19                	je     3f39 <string_tok+0x39>
    3f20:	0f b6 55 00          	movzbl 0x0(%ebp),%edx
    3f24:	88 54 24 03          	mov    %dl,0x3(%esp,1)
    3f28:	90                   	nop    
    3f29:	8d b4 26 00 00 00 00 	lea    0x0(%esi,1),%esi
    3f30:	80 7c 24 03 00       	cmpb   $0x0,0x3(%esp,1)
    3f35:	89 ea                	mov    %ebp,%edx
    3f37:	75 67                	jne    3fa0 <string_tok+0xa0>
    3f39:	89 f8                	mov    %edi,%eax
    3f3b:	01 c6                	add    %eax,%esi
    3f3d:	80 3e 00             	cmpb   $0x0,(%esi)
    3f40:	74 52                	je     3f94 <string_tok+0x94>
    3f42:	89 f1                	mov    %esi,%ecx
    3f44:	8d b6 00 00 00 00    	lea    0x0(%esi),%esi
    3f4a:	8d bf 00 00 00 00    	lea    0x0(%edi),%edi
    3f50:	89 ea                	mov    %ebp,%edx
    3f52:	0f b6 02             	movzbl (%edx),%eax
    3f55:	84 c0                	test   %al,%al
    3f57:	74 13                	je     3f6c <string_tok+0x6c>
    3f59:	0f b6 19             	movzbl (%ecx),%ebx
    3f5c:	8d 74 26 00          	lea    0x0(%esi,1),%esi
    3f60:	38 c3                	cmp    %al,%bl
    3f62:	74 2c                	je     3f90 <string_tok+0x90>
    3f64:	42                   	inc    %edx
    3f65:	0f b6 02             	movzbl (%edx),%eax
    3f68:	84 c0                	test   %al,%al
    3f6a:	75 f4                	jne    3f60 <string_tok+0x60>
    3f6c:	41                   	inc    %ecx
    3f6d:	80 39 00             	cmpb   $0x0,(%ecx)
    3f70:	75 de                	jne    3f50 <string_tok+0x50>
    3f72:	31 c0                	xor    %eax,%eax
    3f74:	85 c0                	test   %eax,%eax
    3f76:	74 09                	je     3f81 <string_tok+0x81>
    3f78:	80 38 00             	cmpb   $0x0,(%eax)
    3f7b:	74 04                	je     3f81 <string_tok+0x81>
    3f7d:	c6 00 00             	movb   $0x0,(%eax)
    3f80:	40                   	inc    %eax
    3f81:	a3 00 00 00 00       	mov    %eax,0x0
    3f86:	89 f0                	mov    %esi,%eax
    3f88:	5a                   	pop    %edx
    3f89:	5b                   	pop    %ebx
    3f8a:	5e                   	pop    %esi
    3f8b:	5f                   	pop    %edi
    3f8c:	5d                   	pop    %ebp
    3f8d:	c3                   	ret    
    3f8e:	89 f6                	mov    %esi,%esi
    3f90:	89 c8                	mov    %ecx,%eax
    3f92:	eb e0                	jmp    3f74 <string_tok+0x74>
    3f94:	31 c0                	xor    %eax,%eax
    3f96:	a3 00 00 00 00       	mov    %eax,0x0
    3f9b:	31 c0                	xor    %eax,%eax
    3f9d:	eb e9                	jmp    3f88 <string_tok+0x88>
    3f9f:	90                   	nop    
    3fa0:	0f b6 45 00          	movzbl 0x0(%ebp),%eax
    3fa4:	0f b6 0b             	movzbl (%ebx),%ecx
    3fa7:	89 f6                	mov    %esi,%esi
    3fa9:	8d bc 27 00 00 00 00 	lea    0x0(%edi,1),%edi
    3fb0:	38 c1                	cmp    %al,%cl
    3fb2:	74 08                	je     3fbc <string_tok+0xbc>
    3fb4:	42                   	inc    %edx
    3fb5:	0f b6 02             	movzbl (%edx),%eax
    3fb8:	84 c0                	test   %al,%al
    3fba:	75 f4                	jne    3fb0 <string_tok+0xb0>
    3fbc:	84 c0                	test   %al,%al
    3fbe:	0f 84 75 ff ff ff    	je     3f39 <string_tok+0x39>
    3fc4:	43                   	inc    %ebx
    3fc5:	47                   	inc    %edi
    3fc6:	80 3b 00             	cmpb   $0x0,(%ebx)
    3fc9:	0f 85 61 ff ff ff    	jne    3f30 <string_tok+0x30>
    3fcf:	e9 65 ff ff ff       	jmp    3f39 <string_tok+0x39>
    3fd4:	8b 35 00 00 00 00    	mov    0x0,%esi
    3fda:	85 f6                	test   %esi,%esi
    3fdc:	0f 85 35 ff ff ff    	jne    3f17 <string_tok+0x17>
    3fe2:	31 c0                	xor    %eax,%eax
    3fe4:	eb a2                	jmp    3f88 <string_tok+0x88>
    3fe6:	8d 76 00             	lea    0x0(%esi),%esi
    3fe9:	8d bc 27 00 00 00 00 	lea    0x0(%edi,1),%edi

00003ff0 <string_sep>:
    3ff0:	55                   	push   %ebp
    3ff1:	57                   	push   %edi
    3ff2:	56                   	push   %esi
    3ff3:	53                   	push   %ebx
    3ff4:	83 ec 04             	sub    $0x4,%esp
    3ff7:	8b 44 24 18          	mov    0x18(%esp,1),%eax
    3ffb:	8b 6c 24 1c          	mov    0x1c(%esp,1),%ebp
    3fff:	8b 30                	mov    (%eax),%esi
    4001:	85 f6                	test   %esi,%esi
    4003:	0f 84 a7 00 00 00    	je     40b0 <string_sep+0xc0>
    4009:	31 ff                	xor    %edi,%edi
    400b:	89 f3                	mov    %esi,%ebx
    400d:	80 3e 00             	cmpb   $0x0,(%esi)
    4010:	74 17                	je     4029 <string_sep+0x39>
    4012:	0f b6 45 00          	movzbl 0x0(%ebp),%eax
    4016:	88 44 24 03          	mov    %al,0x3(%esp,1)
    401a:	8d b6 00 00 00 00    	lea    0x0(%esi),%esi
    4020:	80 7c 24 03 00       	cmpb   $0x0,0x3(%esp,1)
    4025:	89 ea                	mov    %ebp,%edx
    4027:	75 5b                	jne    4084 <string_sep+0x94>
    4029:	89 f8                	mov    %edi,%eax
    402b:	01 c6                	add    %eax,%esi
    402d:	89 f1                	mov    %esi,%ecx
    402f:	80 3e 00             	cmpb   $0x0,(%esi)
    4032:	74 7c                	je     40b0 <string_sep+0xc0>
    4034:	8d b6 00 00 00 00    	lea    0x0(%esi),%esi
    403a:	8d bf 00 00 00 00    	lea    0x0(%edi),%edi
    4040:	89 ea                	mov    %ebp,%edx
    4042:	0f b6 02             	movzbl (%edx),%eax
    4045:	84 c0                	test   %al,%al
    4047:	74 13                	je     405c <string_sep+0x6c>
    4049:	0f b6 19             	movzbl (%ecx),%ebx
    404c:	8d 74 26 00          	lea    0x0(%esi,1),%esi
    4050:	38 c3                	cmp    %al,%bl
    4052:	74 2c                	je     4080 <string_sep+0x90>
    4054:	42                   	inc    %edx
    4055:	0f b6 02             	movzbl (%edx),%eax
    4058:	84 c0                	test   %al,%al
    405a:	75 f4                	jne    4050 <string_sep+0x60>
    405c:	41                   	inc    %ecx
    405d:	80 39 00             	cmpb   $0x0,(%ecx)
    4060:	75 de                	jne    4040 <string_sep+0x50>
    4062:	31 c0                	xor    %eax,%eax
    4064:	8b 54 24 18          	mov    0x18(%esp,1),%edx
    4068:	85 c0                	test   %eax,%eax
    406a:	89 02                	mov    %eax,(%edx)
    406c:	74 0a                	je     4078 <string_sep+0x88>
    406e:	80 38 00             	cmpb   $0x0,(%eax)
    4071:	74 05                	je     4078 <string_sep+0x88>
    4073:	c6 00 00             	movb   $0x0,(%eax)
    4076:	ff 02                	incl   (%edx)
    4078:	89 f0                	mov    %esi,%eax
    407a:	5b                   	pop    %ebx
    407b:	5b                   	pop    %ebx
    407c:	5e                   	pop    %esi
    407d:	5f                   	pop    %edi
    407e:	5d                   	pop    %ebp
    407f:	c3                   	ret    
    4080:	89 c8                	mov    %ecx,%eax
    4082:	eb e0                	jmp    4064 <string_sep+0x74>
    4084:	0f b6 45 00          	movzbl 0x0(%ebp),%eax
    4088:	0f b6 0b             	movzbl (%ebx),%ecx
    408b:	90                   	nop    
    408c:	8d 74 26 00          	lea    0x0(%esi,1),%esi
    4090:	38 c1                	cmp    %al,%cl
    4092:	74 08                	je     409c <string_sep+0xac>
    4094:	42                   	inc    %edx
    4095:	0f b6 02             	movzbl (%edx),%eax
    4098:	84 c0                	test   %al,%al
    409a:	75 f4                	jne    4090 <string_sep+0xa0>
    409c:	84 c0                	test   %al,%al
    409e:	74 89                	je     4029 <string_sep+0x39>
    40a0:	43                   	inc    %ebx
    40a1:	47                   	inc    %edi
    40a2:	80 3b 00             	cmpb   $0x0,(%ebx)
    40a5:	0f 85 75 ff ff ff    	jne    4020 <string_sep+0x30>
    40ab:	e9 79 ff ff ff       	jmp    4029 <string_sep+0x39>
    40b0:	31 c0                	xor    %eax,%eax
    40b2:	eb c6                	jmp    407a <string_sep+0x8a>
    40b4:	8d b6 00 00 00 00    	lea    0x0(%esi),%esi
    40ba:	8d bf 00 00 00 00    	lea    0x0(%edi),%edi

000040c0 <string_spn>:
    40c0:	57                   	push   %edi
    40c1:	56                   	push   %esi
    40c2:	31 f6                	xor    %esi,%esi
    40c4:	53                   	push   %ebx
    40c5:	8b 5c 24 10          	mov    0x10(%esp,1),%ebx
    40c9:	8b 7c 24 14          	mov    0x14(%esp,1),%edi
    40cd:	eb 23                	jmp    40f2 <string_spn+0x32>
    40cf:	90                   	nop    
    40d0:	89 f9                	mov    %edi,%ecx
    40d2:	0f b6 11             	movzbl (%ecx),%edx
    40d5:	84 d2                	test   %dl,%dl
    40d7:	75 07                	jne    40e0 <string_spn+0x20>
    40d9:	89 f0                	mov    %esi,%eax
    40db:	5b                   	pop    %ebx
    40dc:	5e                   	pop    %esi
    40dd:	5f                   	pop    %edi
    40de:	c3                   	ret    
    40df:	90                   	nop    
    40e0:	38 d0                	cmp    %dl,%al
    40e2:	74 08                	je     40ec <string_spn+0x2c>
    40e4:	41                   	inc    %ecx
    40e5:	0f b6 11             	movzbl (%ecx),%edx
    40e8:	84 d2                	test   %dl,%dl
    40ea:	75 f4                	jne    40e0 <string_spn+0x20>
    40ec:	84 d2                	test   %dl,%dl
    40ee:	74 e9                	je     40d9 <string_spn+0x19>
    40f0:	43                   	inc    %ebx
    40f1:	46                   	inc    %esi
    40f2:	0f b6 03             	movzbl (%ebx),%eax
    40f5:	84 c0                	test   %al,%al
    40f7:	75 d7                	jne    40d0 <string_spn+0x10>
    40f9:	eb de                	jmp    40d9 <string_spn+0x19>
    40fb:	90                   	nop    
    40fc:	8d 74 26 00          	lea    0x0(%esi,1),%esi

00004100 <string_scn>:
    4100:	56                   	push   %esi
    4101:	53                   	push   %ebx
    4102:	8b 5c 24 0c          	mov    0xc(%esp,1),%ebx
    4106:	8b 74 24 10          	mov    0x10(%esp,1),%esi
    410a:	0f b6 0b             	movzbl (%ebx),%ecx
    410d:	84 c9                	test   %cl,%cl
    410f:	74 29                	je     413a <string_scn+0x3a>
    4111:	eb 0d                	jmp    4120 <string_scn+0x20>
    4113:	90                   	nop    
    4114:	90                   	nop    
    4115:	90                   	nop    
    4116:	90                   	nop    
    4117:	90                   	nop    
    4118:	90                   	nop    
    4119:	90                   	nop    
    411a:	90                   	nop    
    411b:	90                   	nop    
    411c:	90                   	nop    
    411d:	90                   	nop    
    411e:	90                   	nop    
    411f:	90                   	nop    
    4120:	89 f2                	mov    %esi,%edx
    4122:	eb 05                	jmp    4129 <string_scn+0x29>
    4124:	38 c1                	cmp    %al,%cl
    4126:	74 18                	je     4140 <string_scn+0x40>
    4128:	42                   	inc    %edx
    4129:	0f b6 02             	movzbl (%edx),%eax
    412c:	84 c0                	test   %al,%al
    412e:	75 f4                	jne    4124 <string_scn+0x24>
    4130:	43                   	inc    %ebx
    4131:	0f b6 13             	movzbl (%ebx),%edx
    4134:	88 d1                	mov    %dl,%cl
    4136:	84 c9                	test   %cl,%cl
    4138:	75 e6                	jne    4120 <string_scn+0x20>
    413a:	31 c0                	xor    %eax,%eax
    413c:	5b                   	pop    %ebx
    413d:	5e                   	pop    %esi
    413e:	c3                   	ret    
    413f:	90                   	nop    
    4140:	89 d8                	mov    %ebx,%eax
    4142:	eb f8                	jmp    413c <string_scn+0x3c>
    4144:	8d b6 00 00 00 00    	lea    0x0(%esi),%esi
    414a:	8d bf 00 00 00 00    	lea    0x0(%edi),%edi

00004150 <string_i_compare_max>:
    4150:	55                   	push   %ebp
    4151:	57                   	push   %edi
    4152:	56                   	push   %esi
    4153:	53                   	push   %ebx
    4154:	31 db                	xor    %ebx,%ebx
    4156:	83 ec 0c             	sub    $0xc,%esp
    4159:	c6 44 24 0b 00       	movb   $0x0,0xb(%esp,1)
    415e:	8b 74 24 28          	mov    0x28(%esp,1),%esi
    4162:	8b 6c 24 20          	mov    0x20(%esp,1),%ebp
    4166:	8b 7c 24 24          	mov    0x24(%esp,1),%edi
    416a:	85 f6                	test   %esi,%esi
    416c:	74 43                	je     41b1 <string_i_compare_max+0x61>
    416e:	89 f6                	mov    %esi,%esi
    4170:	0f b6 45 00          	movzbl 0x0(%ebp),%eax
    4174:	45                   	inc    %ebp
    4175:	88 44 24 0b          	mov    %al,0xb(%esp,1)
    4179:	0f b6 1f             	movzbl (%edi),%ebx
    417c:	47                   	inc    %edi
    417d:	84 c0                	test   %al,%al
    417f:	74 30                	je     41b1 <string_i_compare_max+0x61>
    4181:	84 db                	test   %bl,%bl
    4183:	74 2c                	je     41b1 <string_i_compare_max+0x61>
    4185:	38 d8                	cmp    %bl,%al
    4187:	74 3a                	je     41c3 <string_i_compare_max+0x73>
    4189:	83 ec 0c             	sub    $0xc,%esp
    418c:	0f b6 54 24 17       	movzbl 0x17(%esp,1),%edx
    4191:	52                   	push   %edx
    4192:	e8 fc ff ff ff       	call   4193 <string_i_compare_max+0x43>
    4197:	88 44 24 1b          	mov    %al,0x1b(%esp,1)
    419b:	0f b6 d3             	movzbl %bl,%edx
    419e:	89 14 24             	mov    %edx,(%esp,1)
    41a1:	e8 fc ff ff ff       	call   41a2 <string_i_compare_max+0x52>
    41a6:	88 c3                	mov    %al,%bl
    41a8:	83 c4 10             	add    $0x10,%esp
    41ab:	38 5c 24 0b          	cmp    %bl,0xb(%esp,1)
    41af:	74 12                	je     41c3 <string_i_compare_max+0x73>
    41b1:	0f b6 44 24 0b       	movzbl 0xb(%esp,1),%eax
    41b6:	83 c4 0c             	add    $0xc,%esp
    41b9:	0f b6 cb             	movzbl %bl,%ecx
    41bc:	5b                   	pop    %ebx
    41bd:	29 c8                	sub    %ecx,%eax
    41bf:	5e                   	pop    %esi
    41c0:	5f                   	pop    %edi
    41c1:	5d                   	pop    %ebp
    41c2:	c3                   	ret    
    41c3:	4e                   	dec    %esi
    41c4:	75 aa                	jne    4170 <string_i_compare_max+0x20>
    41c6:	eb e9                	jmp    41b1 <string_i_compare_max+0x61>
    41c8:	90                   	nop    
    41c9:	90                   	nop    
    41ca:	90                   	nop    
    41cb:	90                   	nop    
    41cc:	90                   	nop    
    41cd:	90                   	nop    
    41ce:	90                   	nop    
    41cf:	90                   	nop    

000041d0 <char_to_upper_case>:
    41d0:	0f b6 54 24 04       	movzbl 0x4(%esp,1),%edx
    41d5:	88 d1                	mov    %dl,%cl
    41d7:	80 e9 61             	sub    $0x61,%cl
    41da:	80 f9 19             	cmp    $0x19,%cl
    41dd:	77 07                	ja     41e6 <char_to_upper_case+0x16>
    41df:	80 ea 20             	sub    $0x20,%dl
    41e2:	0f b6 c2             	movzbl %dl,%eax
    41e5:	c3                   	ret    
    41e6:	0f b6 c2             	movzbl %dl,%eax
    41e9:	c3                   	ret    
    41ea:	8d b6 00 00 00 00    	lea    0x0(%esi),%esi

000041f0 <char_to_lower_case>:
    41f0:	0f b6 54 24 04       	movzbl 0x4(%esp,1),%edx
    41f5:	88 d1                	mov    %dl,%cl
    41f7:	80 e9 41             	sub    $0x41,%cl
    41fa:	80 f9 19             	cmp    $0x19,%cl
    41fd:	77 07                	ja     4206 <char_to_lower_case+0x16>
    41ff:	80 c2 20             	add    $0x20,%dl
    4202:	0f b6 c2             	movzbl %dl,%eax
    4205:	c3                   	ret    
    4206:	0f b6 c2             	movzbl %dl,%eax
    4209:	c3                   	ret    
    420a:	8d b6 00 00 00 00    	lea    0x0(%esi),%esi

00004210 <char_to_int>:
    4210:	0f b6 54 24 04       	movzbl 0x4(%esp,1),%edx
    4215:	88 d1                	mov    %dl,%cl
    4217:	80 e9 30             	sub    $0x30,%cl
    421a:	80 f9 09             	cmp    $0x9,%cl
    421d:	77 07                	ja     4226 <char_to_int+0x16>
    421f:	0f b6 c2             	movzbl %dl,%eax
    4222:	83 e8 30             	sub    $0x30,%eax
    4225:	c3                   	ret    
    4226:	88 d1                	mov    %dl,%cl
    4228:	80 e9 41             	sub    $0x41,%cl
    422b:	80 f9 05             	cmp    $0x5,%cl
    422e:	77 07                	ja     4237 <char_to_int+0x27>
    4230:	0f b6 c2             	movzbl %dl,%eax
    4233:	83 e8 37             	sub    $0x37,%eax
    4236:	c3                   	ret    
    4237:	88 d1                	mov    %dl,%cl
    4239:	80 e9 61             	sub    $0x61,%cl
    423c:	80 f9 05             	cmp    $0x5,%cl
    423f:	77 07                	ja     4248 <char_to_int+0x38>
    4241:	0f b6 c2             	movzbl %dl,%eax
    4244:	83 e8 57             	sub    $0x57,%eax
    4247:	c3                   	ret    
    4248:	0f b6 c2             	movzbl %dl,%eax
    424b:	c3                   	ret    
    424c:	8d 74 26 00          	lea    0x0(%esi,1),%esi

00004250 <int_to_char>:
    4250:	8b 54 24 04          	mov    0x4(%esp,1),%edx
    4254:	83 fa 09             	cmp    $0x9,%edx
    4257:	77 09                	ja     4262 <int_to_char+0x12>
    4259:	88 d1                	mov    %dl,%cl
    425b:	80 c1 30             	add    $0x30,%cl
    425e:	0f b6 c1             	movzbl %cl,%eax
    4261:	c3                   	ret    
    4262:	8d 42 f6             	lea    0xfffffff6(%edx),%eax
    4265:	83 f8 05             	cmp    $0x5,%eax
    4268:	77 06                	ja     4270 <int_to_char+0x20>
    426a:	04 41                	add    $0x41,%al
    426c:	0f b6 c0             	movzbl %al,%eax
    426f:	c3                   	ret    
    4270:	0f b6 c2             	movzbl %dl,%eax
    4273:	c3                   	ret    
    4274:	8d b6 00 00 00 00    	lea    0x0(%esi),%esi
    427a:	8d bf 00 00 00 00    	lea    0x0(%edi),%edi

00004280 <char_is_alpha_or_number>:
    4280:	56                   	push   %esi
    4281:	31 f6                	xor    %esi,%esi
    4283:	53                   	push   %ebx
    4284:	83 ec 10             	sub    $0x10,%esp
    4287:	0f b6 5c 24 1c       	movzbl 0x1c(%esp,1),%ebx
    428c:	53                   	push   %ebx
    428d:	e8 fc ff ff ff       	call   428e <char_is_alpha_or_number+0xe>
    4292:	83 c4 10             	add    $0x10,%esp
    4295:	85 c0                	test   %eax,%eax
    4297:	74 0b                	je     42a4 <char_is_alpha_or_number+0x24>
    4299:	be 01 00 00 00       	mov    $0x1,%esi
    429e:	5a                   	pop    %edx
    429f:	89 f0                	mov    %esi,%eax
    42a1:	5b                   	pop    %ebx
    42a2:	5e                   	pop    %esi
    42a3:	c3                   	ret    
    42a4:	83 ec 0c             	sub    $0xc,%esp
    42a7:	53                   	push   %ebx
    42a8:	e8 fc ff ff ff       	call   42a9 <char_is_alpha_or_number+0x29>
    42ad:	83 c4 10             	add    $0x10,%esp
    42b0:	85 c0                	test   %eax,%eax
    42b2:	75 e5                	jne    4299 <char_is_alpha_or_number+0x19>
    42b4:	eb e8                	jmp    429e <char_is_alpha_or_number+0x1e>
    42b6:	8d 76 00             	lea    0x0(%esi),%esi
    42b9:	8d bc 27 00 00 00 00 	lea    0x0(%edi,1),%edi

000042c0 <char_is_alpha>:
    42c0:	0f b6 54 24 04       	movzbl 0x4(%esp,1),%edx
    42c5:	80 ea 41             	sub    $0x41,%dl
    42c8:	80 fa 39             	cmp    $0x39,%dl
    42cb:	0f 96 c2             	setbe  %dl
    42ce:	0f b6 c2             	movzbl %dl,%eax
    42d1:	c3                   	ret    
    42d2:	8d b4 26 00 00 00 00 	lea    0x0(%esi,1),%esi
    42d9:	8d bc 27 00 00 00 00 	lea    0x0(%edi,1),%edi

000042e0 <char_is_control>:
    42e0:	80 7c 24 04 2f       	cmpb   $0x2f,0x4(%esp,1)
    42e5:	0f 96 c2             	setbe  %dl
    42e8:	0f b6 c2             	movzbl %dl,%eax
    42eb:	c3                   	ret    
    42ec:	8d 74 26 00          	lea    0x0(%esi,1),%esi

000042f0 <char_is_digit>:
    42f0:	0f b6 54 24 04       	movzbl 0x4(%esp,1),%edx
    42f5:	80 ea 30             	sub    $0x30,%dl
    42f8:	80 fa 09             	cmp    $0x9,%dl
    42fb:	0f 96 c2             	setbe  %dl
    42fe:	0f b6 c2             	movzbl %dl,%eax
    4301:	c3                   	ret    
    4302:	8d b4 26 00 00 00 00 	lea    0x0(%esi,1),%esi
    4309:	8d bc 27 00 00 00 00 	lea    0x0(%edi,1),%edi

00004310 <char_is_lower>:
    4310:	0f b6 54 24 04       	movzbl 0x4(%esp,1),%edx
    4315:	80 ea 61             	sub    $0x61,%dl
    4318:	80 fa 19             	cmp    $0x19,%dl
    431b:	0f 96 c2             	setbe  %dl
    431e:	0f b6 c2             	movzbl %dl,%eax
    4321:	c3                   	ret    
    4322:	8d b4 26 00 00 00 00 	lea    0x0(%esi,1),%esi
    4329:	8d bc 27 00 00 00 00 	lea    0x0(%edi,1),%edi

00004330 <char_is_space>:
    4330:	0f b6 54 24 04       	movzbl 0x4(%esp,1),%edx
    4335:	88 d1                	mov    %dl,%cl
    4337:	80 e9 09             	sub    $0x9,%cl
    433a:	80 f9 04             	cmp    $0x4,%cl
    433d:	76 08                	jbe    4347 <char_is_space+0x17>
    433f:	80 fa 20             	cmp    $0x20,%dl
    4342:	74 03                	je     4347 <char_is_space+0x17>
    4344:	31 c0                	xor    %eax,%eax
    4346:	c3                   	ret    
    4347:	b8 01 00 00 00       	mov    $0x1,%eax
    434c:	c3                   	ret    
    434d:	8d 76 00             	lea    0x0(%esi),%esi

00004350 <char_is_upper>:
    4350:	0f b6 54 24 04       	movzbl 0x4(%esp,1),%edx
    4355:	80 ea 41             	sub    $0x41,%dl
    4358:	80 fa 19             	cmp    $0x19,%dl
    435b:	0f 96 c2             	setbe  %dl
    435e:	0f b6 c2             	movzbl %dl,%eax
    4361:	c3                   	ret    
    4362:	8d b4 26 00 00 00 00 	lea    0x0(%esi,1),%esi
    4369:	8d bc 27 00 00 00 00 	lea    0x0(%edi,1),%edi

00004370 <char_is_heximal_digit>:
    4370:	0f b6 54 24 04       	movzbl 0x4(%esp,1),%edx
    4375:	88 d1                	mov    %dl,%cl
    4377:	80 e9 30             	sub    $0x30,%cl
    437a:	80 f9 16             	cmp    $0x16,%cl
    437d:	76 08                	jbe    4387 <char_is_heximal_digit+0x17>
    437f:	80 ea 61             	sub    $0x61,%dl
    4382:	80 fa 05             	cmp    $0x5,%dl
    4385:	77 09                	ja     4390 <char_is_heximal_digit+0x20>
    4387:	b8 01 00 00 00       	mov    $0x1,%eax
    438c:	c3                   	ret    
    438d:	8d 76 00             	lea    0x0(%esi),%esi
    4390:	31 c0                	xor    %eax,%eax
    4392:	c3                   	ret    
    4393:	8d b6 00 00 00 00    	lea    0x0(%esi),%esi
    4399:	8d bc 27 00 00 00 00 	lea    0x0(%edi,1),%edi

000043a0 <char_is_number>:
    43a0:	0f b6 54 24 04       	movzbl 0x4(%esp,1),%edx
    43a5:	8b 44 24 08          	mov    0x8(%esp,1),%eax
    43a9:	80 fa 2f             	cmp    $0x2f,%dl
    43ac:	76 13                	jbe    43c1 <char_is_number+0x21>
    43ae:	8b 0d 88 63 00 00    	mov    0x6388,%ecx
    43b4:	01 c8                	add    %ecx,%eax
    43b6:	3a 50 ff             	cmp    0xffffffff(%eax),%dl
    43b9:	77 06                	ja     43c1 <char_is_number+0x21>
    43bb:	b8 01 00 00 00       	mov    $0x1,%eax
    43c0:	c3                   	ret    
    43c1:	31 c0                	xor    %eax,%eax
    43c3:	c3                   	ret    
    43c4:	90                   	nop    
    43c5:	90                   	nop    
    43c6:	90                   	nop    
    43c7:	90                   	nop    
    43c8:	90                   	nop    
    43c9:	90                   	nop    
    43ca:	90                   	nop    
    43cb:	90                   	nop    
    43cc:	90                   	nop    
    43cd:	90                   	nop    
    43ce:	90                   	nop    
    43cf:	90                   	nop    

000043d0 <string_to_double>:
    43d0:	55                   	push   %ebp
    43d1:	d9 ee                	fldz   
    43d3:	d9 c0                	fld    %st(0)
    43d5:	57                   	push   %edi
    43d6:	d9 e8                	fld1   
    43d8:	56                   	push   %esi
    43d9:	53                   	push   %ebx
    43da:	31 db                	xor    %ebx,%ebx
    43dc:	83 ec 08             	sub    $0x8,%esp
    43df:	8b 4c 24 1c          	mov    0x1c(%esp,1),%ecx
    43e3:	8b 6c 24 24          	mov    0x24(%esp,1),%ebp
    43e7:	85 c9                	test   %ecx,%ecx
    43e9:	89 cf                	mov    %ecx,%edi
    43eb:	0f 84 e2 01 00 00    	je     45d3 <string_to_double+0x203>
    43f1:	8b 44 24 20          	mov    0x20(%esp,1),%eax
    43f5:	85 c0                	test   %eax,%eax
    43f7:	0f 84 d6 01 00 00    	je     45d3 <string_to_double+0x203>
    43fd:	0f b6 11             	movzbl (%ecx),%edx
    4400:	80 fa 2d             	cmp    $0x2d,%dl
    4403:	0f 84 bc 01 00 00    	je     45c5 <string_to_double+0x1f5>
    4409:	be 01 00 00 00       	mov    $0x1,%esi
    440e:	80 fa 30             	cmp    $0x30,%dl
    4411:	0f 84 9f 01 00 00    	je     45b6 <string_to_double+0x1e6>
    4417:	88 d0                	mov    %dl,%al
    4419:	2c 30                	sub    $0x30,%al
    441b:	3c 09                	cmp    $0x9,%al
    441d:	77 30                	ja     444f <string_to_double+0x7f>
    441f:	dd 05 00 52 00 00    	fldl   0x5200
    4425:	8d 74 26 00          	lea    0x0(%esi,1),%esi
    4429:	8d bc 27 00 00 00 00 	lea    0x0(%edi,1),%edi
    4430:	0f b6 11             	movzbl (%ecx),%edx
    4433:	41                   	inc    %ecx
    4434:	dc cb                	fmul   %st,%st(3)
    4436:	83 ea 30             	sub    $0x30,%edx
    4439:	52                   	push   %edx
    443a:	db 04 24             	fildl  (%esp,1)
    443d:	83 c4 04             	add    $0x4,%esp
    4440:	0f b6 11             	movzbl (%ecx),%edx
    4443:	88 d0                	mov    %dl,%al
    4445:	2c 30                	sub    $0x30,%al
    4447:	3c 09                	cmp    $0x9,%al
    4449:	de c4                	faddp  %st,%st(4)
    444b:	76 e3                	jbe    4430 <string_to_double+0x60>
    444d:	dd d8                	fstp   %st(0)
    444f:	80 fa 2e             	cmp    $0x2e,%dl
    4452:	0f 84 19 01 00 00    	je     4571 <string_to_double+0x1a1>
    4458:	56                   	push   %esi
    4459:	de f9                	fdivrp %st,%st(1)
    445b:	de c1                	faddp  %st,%st(1)
    445d:	db 04 24             	fildl  (%esp,1)
    4460:	83 c4 04             	add    $0x4,%esp
    4463:	80 fa 65             	cmp    $0x65,%dl
    4466:	de c9                	fmulp  %st,%st(1)
    4468:	74 4d                	je     44b7 <string_to_double+0xe7>
    446a:	80 fa 45             	cmp    $0x45,%dl
    446d:	74 48                	je     44b7 <string_to_double+0xe7>
    446f:	85 f6                	test   %esi,%esi
    4471:	7e 2f                	jle    44a2 <string_to_double+0xd2>
    4473:	31 c0                	xor    %eax,%eax
    4475:	39 d8                	cmp    %ebx,%eax
    4477:	7d 10                	jge    4489 <string_to_double+0xb9>
    4479:	dd 05 00 52 00 00    	fldl   0x5200
    447f:	90                   	nop    
    4480:	40                   	inc    %eax
    4481:	39 d8                	cmp    %ebx,%eax
    4483:	dc c9                	fmul   %st,%st(1)
    4485:	7c f9                	jl     4480 <string_to_double+0xb0>
    4487:	dd d8                	fstp   %st(0)
    4489:	85 ed                	test   %ebp,%ebp
    448b:	74 05                	je     4492 <string_to_double+0xc2>
    448d:	29 f9                	sub    %edi,%ecx
    448f:	89 4d 00             	mov    %ecx,0x0(%ebp)
    4492:	8b 44 24 20          	mov    0x20(%esp,1),%eax
    4496:	dd 18                	fstpl  (%eax)
    4498:	31 c0                	xor    %eax,%eax
    449a:	83 c4 08             	add    $0x8,%esp
    449d:	5b                   	pop    %ebx
    449e:	5e                   	pop    %esi
    449f:	5f                   	pop    %edi
    44a0:	5d                   	pop    %ebp
    44a1:	c3                   	ret    
    44a2:	85 db                	test   %ebx,%ebx
    44a4:	74 e3                	je     4489 <string_to_double+0xb9>
    44a6:	dd 05 00 52 00 00    	fldl   0x5200
    44ac:	89 d8                	mov    %ebx,%eax
    44ae:	89 f6                	mov    %esi,%esi
    44b0:	48                   	dec    %eax
    44b1:	dc f9                	fdivr  %st,%st(1)
    44b3:	75 fb                	jne    44b0 <string_to_double+0xe0>
    44b5:	eb d0                	jmp    4487 <string_to_double+0xb7>
    44b7:	41                   	inc    %ecx
    44b8:	0f b6 11             	movzbl (%ecx),%edx
    44bb:	80 fa 2d             	cmp    $0x2d,%dl
    44be:	0f 84 9f 00 00 00    	je     4563 <string_to_double+0x193>
    44c4:	80 fa 2b             	cmp    $0x2b,%dl
    44c7:	0f 84 88 00 00 00    	je     4555 <string_to_double+0x185>
    44cd:	be 01 00 00 00       	mov    $0x1,%esi
    44d2:	80 ea 30             	sub    $0x30,%dl
    44d5:	80 fa 09             	cmp    $0x9,%dl
    44d8:	77 95                	ja     446f <string_to_double+0x9f>
    44da:	dd 05 00 52 00 00    	fldl   0x5200
    44e0:	0f b6 11             	movzbl (%ecx),%edx
    44e3:	41                   	inc    %ecx
    44e4:	83 ea 30             	sub    $0x30,%edx
    44e7:	52                   	push   %edx
    44e8:	db 04 24             	fildl  (%esp,1)
    44eb:	89 1c 24             	mov    %ebx,(%esp,1)
    44ee:	db 04 24             	fildl  (%esp,1)
    44f1:	83 c4 04             	add    $0x4,%esp
    44f4:	d8 ca                	fmul   %st(2),%st
    44f6:	d9 7c 24 04          	fnstcw 0x4(%esp,1)
    44fa:	8b 54 24 04          	mov    0x4(%esp,1),%edx
    44fe:	c6 44 24 05 0c       	movb   $0xc,0x5(%esp,1)
    4503:	d9 6c 24 04          	fldcw  0x4(%esp,1)
    4507:	89 54 24 04          	mov    %edx,0x4(%esp,1)
    450b:	db 1c 24             	fistpl (%esp,1)
    450e:	d9 6c 24 04          	fldcw  0x4(%esp,1)
    4512:	8b 04 24             	mov    (%esp,1),%eax
    4515:	0f b7 d0             	movzwl %ax,%edx
    4518:	52                   	push   %edx
    4519:	db 04 24             	fildl  (%esp,1)
    451c:	83 c4 04             	add    $0x4,%esp
    451f:	de c1                	faddp  %st,%st(1)
    4521:	d9 7c 24 04          	fnstcw 0x4(%esp,1)
    4525:	8b 54 24 04          	mov    0x4(%esp,1),%edx
    4529:	c6 44 24 05 0c       	movb   $0xc,0x5(%esp,1)
    452e:	d9 6c 24 04          	fldcw  0x4(%esp,1)
    4532:	89 54 24 04          	mov    %edx,0x4(%esp,1)
    4536:	db 1c 24             	fistpl (%esp,1)
    4539:	d9 6c 24 04          	fldcw  0x4(%esp,1)
    453d:	0f b6 11             	movzbl (%ecx),%edx
    4540:	8b 04 24             	mov    (%esp,1),%eax
    4543:	80 ea 30             	sub    $0x30,%dl
    4546:	80 fa 09             	cmp    $0x9,%dl
    4549:	0f b7 d8             	movzwl %ax,%ebx
    454c:	76 92                	jbe    44e0 <string_to_double+0x110>
    454e:	dd d8                	fstp   %st(0)
    4550:	e9 1a ff ff ff       	jmp    446f <string_to_double+0x9f>
    4555:	41                   	inc    %ecx
    4556:	be 01 00 00 00       	mov    $0x1,%esi
    455b:	0f b6 11             	movzbl (%ecx),%edx
    455e:	e9 6f ff ff ff       	jmp    44d2 <string_to_double+0x102>
    4563:	41                   	inc    %ecx
    4564:	be ff ff ff ff       	mov    $0xffffffff,%esi
    4569:	0f b6 11             	movzbl (%ecx),%edx
    456c:	e9 61 ff ff ff       	jmp    44d2 <string_to_double+0x102>
    4571:	41                   	inc    %ecx
    4572:	0f b6 11             	movzbl (%ecx),%edx
    4575:	88 d0                	mov    %dl,%al
    4577:	2c 30                	sub    $0x30,%al
    4579:	3c 09                	cmp    $0x9,%al
    457b:	0f 87 d7 fe ff ff    	ja     4458 <string_to_double+0x88>
    4581:	dd 05 00 52 00 00    	fldl   0x5200
    4587:	89 f6                	mov    %esi,%esi
    4589:	8d bc 27 00 00 00 00 	lea    0x0(%edi,1),%edi
    4590:	0f b6 11             	movzbl (%ecx),%edx
    4593:	dc ca                	fmul   %st,%st(2)
    4595:	41                   	inc    %ecx
    4596:	dc c9                	fmul   %st,%st(1)
    4598:	83 ea 30             	sub    $0x30,%edx
    459b:	52                   	push   %edx
    459c:	db 04 24             	fildl  (%esp,1)
    459f:	83 c4 04             	add    $0x4,%esp
    45a2:	0f b6 11             	movzbl (%ecx),%edx
    45a5:	88 d0                	mov    %dl,%al
    45a7:	2c 30                	sub    $0x30,%al
    45a9:	3c 09                	cmp    $0x9,%al
    45ab:	de c3                	faddp  %st,%st(3)
    45ad:	76 e1                	jbe    4590 <string_to_double+0x1c0>
    45af:	dd d8                	fstp   %st(0)
    45b1:	e9 a2 fe ff ff       	jmp    4458 <string_to_double+0x88>
    45b6:	41                   	inc    %ecx
    45b7:	0f b6 11             	movzbl (%ecx),%edx
    45ba:	80 fa 30             	cmp    $0x30,%dl
    45bd:	0f 85 54 fe ff ff    	jne    4417 <string_to_double+0x47>
    45c3:	eb f1                	jmp    45b6 <string_to_double+0x1e6>
    45c5:	41                   	inc    %ecx
    45c6:	be ff ff ff ff       	mov    $0xffffffff,%esi
    45cb:	0f b6 11             	movzbl (%ecx),%edx
    45ce:	e9 3b fe ff ff       	jmp    440e <string_to_double+0x3e>
    45d3:	dd d8                	fstp   %st(0)
    45d5:	dd d8                	fstp   %st(0)
    45d7:	dd d8                	fstp   %st(0)
    45d9:	b8 01 00 00 00       	mov    $0x1,%eax
    45de:	e9 b7 fe ff ff       	jmp    449a <string_to_double+0xca>
    45e3:	8d b6 00 00 00 00    	lea    0x0(%esi),%esi
    45e9:	8d bc 27 00 00 00 00 	lea    0x0(%edi,1),%edi

000045f0 <string_to_int32_with_base_autodetect>:
    45f0:	55                   	push   %ebp
    45f1:	ba 0a 00 00 00       	mov    $0xa,%edx
    45f6:	31 ed                	xor    %ebp,%ebp
    45f8:	57                   	push   %edi
    45f9:	b8 01 00 00 00       	mov    $0x1,%eax
    45fe:	56                   	push   %esi
    45ff:	31 f6                	xor    %esi,%esi
    4601:	53                   	push   %ebx
    4602:	8b 4c 24 14          	mov    0x14(%esp,1),%ecx
    4606:	8b 7c 24 18          	mov    0x18(%esp,1),%edi
    460a:	85 c9                	test   %ecx,%ecx
    460c:	74 42                	je     4650 <string_to_int32_with_base_autodetect+0x60>
    460e:	80 39 2d             	cmpb   $0x2d,(%ecx)
    4611:	0f 84 7c 01 00 00    	je     4793 <string_to_int32_with_base_autodetect+0x1a3>
    4617:	80 3c 0e 30          	cmpb   $0x30,(%esi,%ecx,1)
    461b:	0f 84 3f 01 00 00    	je     4760 <string_to_int32_with_base_autodetect+0x170>
    4621:	c7 07 00 00 00 00    	movl   $0x0,(%edi)
    4627:	83 fa 0a             	cmp    $0xa,%edx
    462a:	0f 84 d2 00 00 00    	je     4702 <string_to_int32_with_base_autodetect+0x112>
    4630:	83 fa 0a             	cmp    $0xa,%edx
    4633:	77 5b                	ja     4690 <string_to_int32_with_base_autodetect+0xa0>
    4635:	83 fa 02             	cmp    $0x2,%edx
    4638:	74 1b                	je     4655 <string_to_int32_with_base_autodetect+0x65>
    463a:	85 ed                	test   %ebp,%ebp
    463c:	74 02                	je     4640 <string_to_int32_with_base_autodetect+0x50>
    463e:	f7 1f                	negl   (%edi)
    4640:	8b 44 24 1c          	mov    0x1c(%esp,1),%eax
    4644:	85 c0                	test   %eax,%eax
    4646:	74 06                	je     464e <string_to_int32_with_base_autodetect+0x5e>
    4648:	8b 44 24 1c          	mov    0x1c(%esp,1),%eax
    464c:	89 30                	mov    %esi,(%eax)
    464e:	31 c0                	xor    %eax,%eax
    4650:	5b                   	pop    %ebx
    4651:	5e                   	pop    %esi
    4652:	5f                   	pop    %edi
    4653:	5d                   	pop    %ebp
    4654:	c3                   	ret    
    4655:	0f b6 14 0e          	movzbl (%esi,%ecx,1),%edx
    4659:	80 ea 30             	sub    $0x30,%dl
    465c:	80 fa 01             	cmp    $0x1,%dl
    465f:	77 d9                	ja     463a <string_to_int32_with_base_autodetect+0x4a>
    4661:	eb 0d                	jmp    4670 <string_to_int32_with_base_autodetect+0x80>
    4663:	90                   	nop    
    4664:	90                   	nop    
    4665:	90                   	nop    
    4666:	90                   	nop    
    4667:	90                   	nop    
    4668:	90                   	nop    
    4669:	90                   	nop    
    466a:	90                   	nop    
    466b:	90                   	nop    
    466c:	90                   	nop    
    466d:	90                   	nop    
    466e:	90                   	nop    
    466f:	90                   	nop    
    4670:	8b 07                	mov    (%edi),%eax
    4672:	01 c0                	add    %eax,%eax
    4674:	89 07                	mov    %eax,(%edi)
    4676:	0f b6 14 0e          	movzbl (%esi,%ecx,1),%edx
    467a:	46                   	inc    %esi
    467b:	8d 5c 02 d0          	lea    0xffffffd0(%edx,%eax,1),%ebx
    467f:	89 1f                	mov    %ebx,(%edi)
    4681:	0f b6 14 0e          	movzbl (%esi,%ecx,1),%edx
    4685:	80 ea 30             	sub    $0x30,%dl
    4688:	80 fa 01             	cmp    $0x1,%dl
    468b:	76 e3                	jbe    4670 <string_to_int32_with_base_autodetect+0x80>
    468d:	eb ab                	jmp    463a <string_to_int32_with_base_autodetect+0x4a>
    468f:	90                   	nop    
    4690:	83 fa 10             	cmp    $0x10,%edx
    4693:	75 a5                	jne    463a <string_to_int32_with_base_autodetect+0x4a>
    4695:	8d 1c 31             	lea    (%ecx,%esi,1),%ebx
    4698:	90                   	nop    
    4699:	8d b4 26 00 00 00 00 	lea    0x0(%esi,1),%esi
    46a0:	0f b6 13             	movzbl (%ebx),%edx
    46a3:	88 d0                	mov    %dl,%al
    46a5:	2c 30                	sub    $0x30,%al
    46a7:	3c 09                	cmp    $0x9,%al
    46a9:	76 0c                	jbe    46b7 <string_to_int32_with_base_autodetect+0xc7>
    46ab:	2c 31                	sub    $0x31,%al
    46ad:	3c 05                	cmp    $0x5,%al
    46af:	76 06                	jbe    46b7 <string_to_int32_with_base_autodetect+0xc7>
    46b1:	04 20                	add    $0x20,%al
    46b3:	3c 05                	cmp    $0x5,%al
    46b5:	77 83                	ja     463a <string_to_int32_with_base_autodetect+0x4a>
    46b7:	84 d2                	test   %dl,%dl
    46b9:	0f 84 7b ff ff ff    	je     463a <string_to_int32_with_base_autodetect+0x4a>
    46bf:	8b 0f                	mov    (%edi),%ecx
    46c1:	c1 e1 04             	shl    $0x4,%ecx
    46c4:	89 0f                	mov    %ecx,(%edi)
    46c6:	0f b6 13             	movzbl (%ebx),%edx
    46c9:	88 d0                	mov    %dl,%al
    46cb:	2c 30                	sub    $0x30,%al
    46cd:	3c 09                	cmp    $0x9,%al
    46cf:	77 0f                	ja     46e0 <string_to_int32_with_base_autodetect+0xf0>
    46d1:	0f b6 c2             	movzbl %dl,%eax
    46d4:	8d 54 08 d0          	lea    0xffffffd0(%eax,%ecx,1),%edx
    46d8:	89 17                	mov    %edx,(%edi)
    46da:	43                   	inc    %ebx
    46db:	46                   	inc    %esi
    46dc:	eb c2                	jmp    46a0 <string_to_int32_with_base_autodetect+0xb0>
    46de:	89 f6                	mov    %esi,%esi
    46e0:	88 d0                	mov    %dl,%al
    46e2:	2c 61                	sub    $0x61,%al
    46e4:	3c 05                	cmp    $0x5,%al
    46e6:	77 09                	ja     46f1 <string_to_int32_with_base_autodetect+0x101>
    46e8:	0f b6 03             	movzbl (%ebx),%eax
    46eb:	8d 54 08 a9          	lea    0xffffffa9(%eax,%ecx,1),%edx
    46ef:	eb e7                	jmp    46d8 <string_to_int32_with_base_autodetect+0xe8>
    46f1:	80 ea 41             	sub    $0x41,%dl
    46f4:	80 fa 05             	cmp    $0x5,%dl
    46f7:	77 3d                	ja     4736 <string_to_int32_with_base_autodetect+0x146>
    46f9:	0f b6 03             	movzbl (%ebx),%eax
    46fc:	8d 54 08 c9          	lea    0xffffffc9(%eax,%ecx,1),%edx
    4700:	eb d6                	jmp    46d8 <string_to_int32_with_base_autodetect+0xe8>
    4702:	0f b6 14 0e          	movzbl (%esi,%ecx,1),%edx
    4706:	80 ea 30             	sub    $0x30,%dl
    4709:	80 fa 09             	cmp    $0x9,%dl
    470c:	0f 87 28 ff ff ff    	ja     463a <string_to_int32_with_base_autodetect+0x4a>
    4712:	8d b4 26 00 00 00 00 	lea    0x0(%esi,1),%esi
    4719:	8d bc 27 00 00 00 00 	lea    0x0(%edi,1),%edi
    4720:	8b 07                	mov    (%edi),%eax
    4722:	8d 1c 80             	lea    (%eax,%eax,4),%ebx
    4725:	8d 14 1b             	lea    (%ebx,%ebx,1),%edx
    4728:	89 17                	mov    %edx,(%edi)
    472a:	0f b6 1c 0e          	movzbl (%esi,%ecx,1),%ebx
    472e:	80 eb 30             	sub    $0x30,%bl
    4731:	80 fb 09             	cmp    $0x9,%bl
    4734:	76 0a                	jbe    4740 <string_to_int32_with_base_autodetect+0x150>
    4736:	b8 01 00 00 00       	mov    $0x1,%eax
    473b:	e9 10 ff ff ff       	jmp    4650 <string_to_int32_with_base_autodetect+0x60>
    4740:	0f b6 04 0e          	movzbl (%esi,%ecx,1),%eax
    4744:	8d 5c 10 d0          	lea    0xffffffd0(%eax,%edx,1),%ebx
    4748:	89 1f                	mov    %ebx,(%edi)
    474a:	46                   	inc    %esi
    474b:	0f b6 14 0e          	movzbl (%esi,%ecx,1),%edx
    474f:	80 ea 30             	sub    $0x30,%dl
    4752:	80 fa 09             	cmp    $0x9,%dl
    4755:	76 c9                	jbe    4720 <string_to_int32_with_base_autodetect+0x130>
    4757:	e9 de fe ff ff       	jmp    463a <string_to_int32_with_base_autodetect+0x4a>
    475c:	8d 74 26 00          	lea    0x0(%esi,1),%esi
    4760:	46                   	inc    %esi
    4761:	0f b6 04 0e          	movzbl (%esi,%ecx,1),%eax
    4765:	83 f8 62             	cmp    $0x62,%eax
    4768:	74 1e                	je     4788 <string_to_int32_with_base_autodetect+0x198>
    476a:	83 f8 62             	cmp    $0x62,%eax
    476d:	7f 14                	jg     4783 <string_to_int32_with_base_autodetect+0x193>
    476f:	83 f8 58             	cmp    $0x58,%eax
    4772:	0f 85 a9 fe ff ff    	jne    4621 <string_to_int32_with_base_autodetect+0x31>
    4778:	ba 10 00 00 00       	mov    $0x10,%edx
    477d:	46                   	inc    %esi
    477e:	e9 9e fe ff ff       	jmp    4621 <string_to_int32_with_base_autodetect+0x31>
    4783:	83 f8 78             	cmp    $0x78,%eax
    4786:	eb ea                	jmp    4772 <string_to_int32_with_base_autodetect+0x182>
    4788:	ba 02 00 00 00       	mov    $0x2,%edx
    478d:	46                   	inc    %esi
    478e:	e9 8e fe ff ff       	jmp    4621 <string_to_int32_with_base_autodetect+0x31>
    4793:	bd 01 00 00 00       	mov    $0x1,%ebp
    4798:	be 01 00 00 00       	mov    $0x1,%esi
    479d:	e9 75 fe ff ff       	jmp    4617 <string_to_int32_with_base_autodetect+0x27>
    47a2:	8d b4 26 00 00 00 00 	lea    0x0(%esi,1),%esi
    47a9:	8d bc 27 00 00 00 00 	lea    0x0(%edi,1),%edi

000047b0 <uint32_to_string>:
    47b0:	55                   	push   %ebp
    47b1:	57                   	push   %edi
    47b2:	56                   	push   %esi
    47b3:	31 f6                	xor    %esi,%esi
    47b5:	53                   	push   %ebx
    47b6:	83 ec 6c             	sub    $0x6c,%esp
    47b9:	8b ac 24 94 00 00 00 	mov    0x94(%esp,1),%ebp
    47c0:	c6 44 24 0e 00       	movb   $0x0,0xe(%esp,1)
    47c5:	8b bc 24 80 00 00 00 	mov    0x80(%esp,1),%edi
    47cc:	8b 94 24 84 00 00 00 	mov    0x84(%esp,1),%edx
    47d3:	c7 44 24 08 20 52 00 	movl   $0x5220,0x8(%esp,1)
    47da:	00 
    47db:	f7 c5 40 00 00 00    	test   $0x40,%ebp
    47e1:	8b 9c 24 8c 00 00 00 	mov    0x8c(%esp,1),%ebx
    47e8:	c7 44 24 04 00 00 00 	movl   $0x0,0x4(%esp,1)
    47ef:	00 
    47f0:	74 08                	je     47fa <uint32_to_string+0x4a>
    47f2:	c7 44 24 08 60 52 00 	movl   $0x5260,0x8(%esp,1)
    47f9:	00 
    47fa:	f7 c5 10 00 00 00    	test   $0x10,%ebp
    4800:	74 03                	je     4805 <uint32_to_string+0x55>
    4802:	83 e5 fe             	and    $0xfffffffe,%ebp
    4805:	8b 84 24 88 00 00 00 	mov    0x88(%esp,1),%eax
    480c:	83 e8 02             	sub    $0x2,%eax
    480f:	83 f8 22             	cmp    $0x22,%eax
    4812:	76 0c                	jbe    4820 <uint32_to_string+0x70>
    4814:	31 c0                	xor    %eax,%eax
    4816:	83 c4 6c             	add    $0x6c,%esp
    4819:	5b                   	pop    %ebx
    481a:	5e                   	pop    %esi
    481b:	5f                   	pop    %edi
    481c:	5d                   	pop    %ebp
    481d:	c3                   	ret    
    481e:	89 f6                	mov    %esi,%esi
    4820:	c6 44 24 0f 30       	movb   $0x30,0xf(%esp,1)
    4825:	f7 c5 01 00 00 00    	test   $0x1,%ebp
    482b:	0f 84 01 02 00 00    	je     4a32 <uint32_to_string+0x282>
    4831:	f7 c5 02 00 00 00    	test   $0x2,%ebp
    4837:	74 1a                	je     4853 <uint32_to_string+0xa3>
    4839:	85 d2                	test   %edx,%edx
    483b:	0f 88 e5 01 00 00    	js     4a26 <uint32_to_string+0x276>
    4841:	f7 c5 04 00 00 00    	test   $0x4,%ebp
    4847:	0f 84 c3 01 00 00    	je     4a10 <uint32_to_string+0x260>
    484d:	c6 44 24 0e 2b       	movb   $0x2b,0xe(%esp,1)
    4852:	4b                   	dec    %ebx
    4853:	f7 c5 20 00 00 00    	test   $0x20,%ebp
    4859:	74 1c                	je     4877 <uint32_to_string+0xc7>
    485b:	83 bc 24 88 00 00 00 	cmpl   $0x10,0x88(%esp,1)
    4862:	10 
    4863:	0f 84 9d 01 00 00    	je     4a06 <uint32_to_string+0x256>
    4869:	83 bc 24 88 00 00 00 	cmpl   $0x8,0x88(%esp,1)
    4870:	08 
    4871:	0f 84 89 01 00 00    	je     4a00 <uint32_to_string+0x250>
    4877:	85 d2                	test   %edx,%edx
    4879:	0f 84 71 01 00 00    	je     49f0 <uint32_to_string+0x240>
    487f:	90                   	nop    
    4880:	89 d0                	mov    %edx,%eax
    4882:	31 d2                	xor    %edx,%edx
    4884:	f7 b4 24 88 00 00 00 	divl   0x88(%esp,1)
    488b:	89 c1                	mov    %eax,%ecx
    488d:	8b 44 24 08          	mov    0x8(%esp,1),%eax
    4891:	0f b6 14 02          	movzbl (%edx,%eax,1),%edx
    4895:	8b 44 24 04          	mov    0x4(%esp,1),%eax
    4899:	88 54 04 10          	mov    %dl,0x10(%esp,%eax,1)
    489d:	40                   	inc    %eax
    489e:	89 ca                	mov    %ecx,%edx
    48a0:	89 44 24 04          	mov    %eax,0x4(%esp,1)
    48a4:	85 d2                	test   %edx,%edx
    48a6:	75 d8                	jne    4880 <uint32_to_string+0xd0>
    48a8:	8b 84 24 90 00 00 00 	mov    0x90(%esp,1),%eax
    48af:	39 44 24 04          	cmp    %eax,0x4(%esp,1)
    48b3:	7e 0b                	jle    48c0 <uint32_to_string+0x110>
    48b5:	8b 44 24 04          	mov    0x4(%esp,1),%eax
    48b9:	89 84 24 90 00 00 00 	mov    %eax,0x90(%esp,1)
    48c0:	8b 84 24 90 00 00 00 	mov    0x90(%esp,1),%eax
    48c7:	29 c3                	sub    %eax,%ebx
    48c9:	f7 c5 11 00 00 00    	test   $0x11,%ebp
    48cf:	0f 84 fb 00 00 00    	je     49d0 <uint32_to_string+0x220>
    48d5:	80 7c 24 0e 00       	cmpb   $0x0,0xe(%esp,1)
    48da:	74 09                	je     48e5 <uint32_to_string+0x135>
    48dc:	0f b6 54 24 0e       	movzbl 0xe(%esp,1),%edx
    48e1:	88 14 3e             	mov    %dl,(%esi,%edi,1)
    48e4:	46                   	inc    %esi
    48e5:	f7 c5 20 00 00 00    	test   $0x20,%ebp
    48eb:	74 1c                	je     4909 <uint32_to_string+0x159>
    48ed:	83 bc 24 88 00 00 00 	cmpl   $0x8,0x88(%esp,1)
    48f4:	08 
    48f5:	0f 84 c5 00 00 00    	je     49c0 <uint32_to_string+0x210>
    48fb:	83 bc 24 88 00 00 00 	cmpl   $0x10,0x88(%esp,1)
    4902:	10 
    4903:	0f 84 9a 00 00 00    	je     49a3 <uint32_to_string+0x1f3>
    4909:	83 e5 10             	and    $0x10,%ebp
    490c:	74 72                	je     4980 <uint32_to_string+0x1d0>
    490e:	8b 84 24 90 00 00 00 	mov    0x90(%esp,1),%eax
    4915:	39 44 24 04          	cmp    %eax,0x4(%esp,1)
    4919:	7d 1e                	jge    4939 <uint32_to_string+0x189>
    491b:	90                   	nop    
    491c:	8d 74 26 00          	lea    0x0(%esi,1),%esi
    4920:	c6 04 3e 30          	movb   $0x30,(%esi,%edi,1)
    4924:	46                   	inc    %esi
    4925:	ff 8c 24 90 00 00 00 	decl   0x90(%esp,1)
    492c:	8b ac 24 90 00 00 00 	mov    0x90(%esp,1),%ebp
    4933:	39 6c 24 04          	cmp    %ebp,0x4(%esp,1)
    4937:	7c e7                	jl     4920 <uint32_to_string+0x170>
    4939:	8b 44 24 04          	mov    0x4(%esp,1),%eax
    493d:	85 c0                	test   %eax,%eax
    493f:	7e 2c                	jle    496d <uint32_to_string+0x1bd>
    4941:	8d 54 24 10          	lea    0x10(%esp,1),%edx
    4945:	8d 74 26 00          	lea    0x0(%esi,1),%esi
    4949:	8d bc 27 00 00 00 00 	lea    0x0(%edi,1),%edi
    4950:	ff 4c 24 04          	decl   0x4(%esp,1)
    4954:	8b 6c 24 04          	mov    0x4(%esp,1),%ebp
    4958:	0f b6 4c 15 00       	movzbl 0x0(%ebp,%edx,1),%ecx
    495d:	88 0c 3e             	mov    %cl,(%esi,%edi,1)
    4960:	46                   	inc    %esi
    4961:	85 ed                	test   %ebp,%ebp
    4963:	7f eb                	jg     4950 <uint32_to_string+0x1a0>
    4965:	eb 06                	jmp    496d <uint32_to_string+0x1bd>
    4967:	c6 04 3e 20          	movb   $0x20,(%esi,%edi,1)
    496b:	4b                   	dec    %ebx
    496c:	46                   	inc    %esi
    496d:	85 db                	test   %ebx,%ebx
    496f:	7f f6                	jg     4967 <uint32_to_string+0x1b7>
    4971:	c6 04 3e 00          	movb   $0x0,(%esi,%edi,1)
    4975:	89 f8                	mov    %edi,%eax
    4977:	e9 9a fe ff ff       	jmp    4816 <uint32_to_string+0x66>
    497c:	8d 74 26 00          	lea    0x0(%esi,1),%esi
    4980:	85 db                	test   %ebx,%ebx
    4982:	7e 8a                	jle    490e <uint32_to_string+0x15e>
    4984:	8d b6 00 00 00 00    	lea    0x0(%esi),%esi
    498a:	8d bf 00 00 00 00    	lea    0x0(%edi),%edi
    4990:	0f b6 54 24 0f       	movzbl 0xf(%esp,1),%edx
    4995:	4b                   	dec    %ebx
    4996:	88 14 3e             	mov    %dl,(%esi,%edi,1)
    4999:	46                   	inc    %esi
    499a:	85 db                	test   %ebx,%ebx
    499c:	7f f2                	jg     4990 <uint32_to_string+0x1e0>
    499e:	e9 6b ff ff ff       	jmp    490e <uint32_to_string+0x15e>
    49a3:	c6 04 3e 30          	movb   $0x30,(%esi,%edi,1)
    49a7:	8b 44 24 08          	mov    0x8(%esp,1),%eax
    49ab:	0f b6 48 21          	movzbl 0x21(%eax),%ecx
    49af:	88 4c 3e 01          	mov    %cl,0x1(%esi,%edi,1)
    49b3:	83 c6 02             	add    $0x2,%esi
    49b6:	e9 4e ff ff ff       	jmp    4909 <uint32_to_string+0x159>
    49bb:	90                   	nop    
    49bc:	8d 74 26 00          	lea    0x0(%esi,1),%esi
    49c0:	c6 04 3e 30          	movb   $0x30,(%esi,%edi,1)
    49c4:	46                   	inc    %esi
    49c5:	e9 3f ff ff ff       	jmp    4909 <uint32_to_string+0x159>
    49ca:	8d b6 00 00 00 00    	lea    0x0(%esi),%esi
    49d0:	85 db                	test   %ebx,%ebx
    49d2:	0f 8e fd fe ff ff    	jle    48d5 <uint32_to_string+0x125>
    49d8:	90                   	nop    
    49d9:	8d b4 26 00 00 00 00 	lea    0x0(%esi,1),%esi
    49e0:	c6 04 3e 20          	movb   $0x20,(%esi,%edi,1)
    49e4:	4b                   	dec    %ebx
    49e5:	46                   	inc    %esi
    49e6:	85 db                	test   %ebx,%ebx
    49e8:	7f f6                	jg     49e0 <uint32_to_string+0x230>
    49ea:	e9 e6 fe ff ff       	jmp    48d5 <uint32_to_string+0x125>
    49ef:	90                   	nop    
    49f0:	ff 44 24 04          	incl   0x4(%esp,1)
    49f4:	c6 44 24 10 30       	movb   $0x30,0x10(%esp,1)
    49f9:	e9 aa fe ff ff       	jmp    48a8 <uint32_to_string+0xf8>
    49fe:	89 f6                	mov    %esi,%esi
    4a00:	4b                   	dec    %ebx
    4a01:	e9 71 fe ff ff       	jmp    4877 <uint32_to_string+0xc7>
    4a06:	83 eb 02             	sub    $0x2,%ebx
    4a09:	e9 69 fe ff ff       	jmp    4877 <uint32_to_string+0xc7>
    4a0e:	89 f6                	mov    %esi,%esi
    4a10:	f7 c5 08 00 00 00    	test   $0x8,%ebp
    4a16:	0f 84 37 fe ff ff    	je     4853 <uint32_to_string+0xa3>
    4a1c:	c6 44 24 0e 20       	movb   $0x20,0xe(%esp,1)
    4a21:	e9 2c fe ff ff       	jmp    4852 <uint32_to_string+0xa2>
    4a26:	c6 44 24 0e 2d       	movb   $0x2d,0xe(%esp,1)
    4a2b:	f7 da                	neg    %edx
    4a2d:	e9 20 fe ff ff       	jmp    4852 <uint32_to_string+0xa2>
    4a32:	c6 44 24 0f 20       	movb   $0x20,0xf(%esp,1)
    4a37:	e9 f5 fd ff ff       	jmp    4831 <uint32_to_string+0x81>
    4a3c:	8d 74 26 00          	lea    0x0(%esi,1),%esi

00004a40 <string_to_int32>:
    4a40:	55                   	push   %ebp
    4a41:	31 ed                	xor    %ebp,%ebp
    4a43:	57                   	push   %edi
    4a44:	56                   	push   %esi
    4a45:	31 f6                	xor    %esi,%esi
    4a47:	53                   	push   %ebx
    4a48:	83 ec 0c             	sub    $0xc,%esp
    4a4b:	8b 5c 24 20          	mov    0x20(%esp,1),%ebx
    4a4f:	c7 44 24 08 00 00 00 	movl   $0x0,0x8(%esp,1)
    4a56:	00 
    4a57:	8b 7c 24 28          	mov    0x28(%esp,1),%edi
    4a5b:	85 db                	test   %ebx,%ebx
    4a5d:	89 5c 24 04          	mov    %ebx,0x4(%esp,1)
    4a61:	74 5d                	je     4ac0 <string_to_int32+0x80>
    4a63:	8b 44 24 24          	mov    0x24(%esp,1),%eax
    4a67:	85 c0                	test   %eax,%eax
    4a69:	74 55                	je     4ac0 <string_to_int32+0x80>
    4a6b:	0f b6 03             	movzbl (%ebx),%eax
    4a6e:	3c 2d                	cmp    $0x2d,%al
    4a70:	0f 84 9a 00 00 00    	je     4b10 <string_to_int32+0xd0>
    4a76:	3c 2b                	cmp    $0x2b,%al
    4a78:	0f 84 9a 00 00 00    	je     4b18 <string_to_int32+0xd8>
    4a7e:	3c 30                	cmp    $0x30,%al
    4a80:	74 7f                	je     4b01 <string_to_int32+0xc1>
    4a82:	83 ec 08             	sub    $0x8,%esp
    4a85:	57                   	push   %edi
    4a86:	0f b6 13             	movzbl (%ebx),%edx
    4a89:	52                   	push   %edx
    4a8a:	e8 fc ff ff ff       	call   4a8b <string_to_int32+0x4b>
    4a8f:	83 c4 10             	add    $0x10,%esp
    4a92:	85 c0                	test   %eax,%eax
    4a94:	74 3a                	je     4ad0 <string_to_int32+0x90>
    4a96:	0f b6 13             	movzbl (%ebx),%edx
    4a99:	83 ec 0c             	sub    $0xc,%esp
    4a9c:	43                   	inc    %ebx
    4a9d:	52                   	push   %edx
    4a9e:	e8 fc ff ff ff       	call   4a9f <string_to_int32+0x5f>
    4aa3:	89 c2                	mov    %eax,%edx
    4aa5:	83 c4 10             	add    $0x10,%esp
    4aa8:	39 fa                	cmp    %edi,%edx
    4aaa:	77 14                	ja     4ac0 <string_to_int32+0x80>
    4aac:	89 f1                	mov    %esi,%ecx
    4aae:	0f af f7             	imul   %edi,%esi
    4ab1:	01 d6                	add    %edx,%esi
    4ab3:	39 f1                	cmp    %esi,%ecx
    4ab5:	7e cb                	jle    4a82 <string_to_int32+0x42>
    4ab7:	bd 01 00 00 00       	mov    $0x1,%ebp
    4abc:	eb c4                	jmp    4a82 <string_to_int32+0x42>
    4abe:	89 f6                	mov    %esi,%esi
    4ac0:	b8 01 00 00 00       	mov    $0x1,%eax
    4ac5:	83 c4 0c             	add    $0xc,%esp
    4ac8:	5b                   	pop    %ebx
    4ac9:	5e                   	pop    %esi
    4aca:	5f                   	pop    %edi
    4acb:	5d                   	pop    %ebp
    4acc:	c3                   	ret    
    4acd:	8d 76 00             	lea    0x0(%esi),%esi
    4ad0:	8b 44 24 2c          	mov    0x2c(%esp,1),%eax
    4ad4:	85 c0                	test   %eax,%eax
    4ad6:	74 0c                	je     4ae4 <string_to_int32+0xa4>
    4ad8:	8b 7c 24 04          	mov    0x4(%esp,1),%edi
    4adc:	8b 44 24 2c          	mov    0x2c(%esp,1),%eax
    4ae0:	29 fb                	sub    %edi,%ebx
    4ae2:	89 18                	mov    %ebx,(%eax)
    4ae4:	85 ed                	test   %ebp,%ebp
    4ae6:	74 05                	je     4aed <string_to_int32+0xad>
    4ae8:	be ff ff ff 7f       	mov    $0x7fffffff,%esi
    4aed:	8b 5c 24 08          	mov    0x8(%esp,1),%ebx
    4af1:	85 db                	test   %ebx,%ebx
    4af3:	74 02                	je     4af7 <string_to_int32+0xb7>
    4af5:	f7 de                	neg    %esi
    4af7:	8b 44 24 24          	mov    0x24(%esp,1),%eax
    4afb:	89 30                	mov    %esi,(%eax)
    4afd:	31 c0                	xor    %eax,%eax
    4aff:	eb c4                	jmp    4ac5 <string_to_int32+0x85>
    4b01:	43                   	inc    %ebx
    4b02:	80 3b 30             	cmpb   $0x30,(%ebx)
    4b05:	e9 76 ff ff ff       	jmp    4a80 <string_to_int32+0x40>
    4b0a:	8d b6 00 00 00 00    	lea    0x0(%esi),%esi
    4b10:	c7 44 24 08 01 00 00 	movl   $0x1,0x8(%esp,1)
    4b17:	00 
    4b18:	43                   	inc    %ebx
    4b19:	0f b6 03             	movzbl (%ebx),%eax
    4b1c:	e9 5d ff ff ff       	jmp    4a7e <string_to_int32+0x3e>
    4b21:	eb 0d                	jmp    4b30 <string_to_uint32>
    4b23:	90                   	nop    
    4b24:	90                   	nop    
    4b25:	90                   	nop    
    4b26:	90                   	nop    
    4b27:	90                   	nop    
    4b28:	90                   	nop    
    4b29:	90                   	nop    
    4b2a:	90                   	nop    
    4b2b:	90                   	nop    
    4b2c:	90                   	nop    
    4b2d:	90                   	nop    
    4b2e:	90                   	nop    
    4b2f:	90                   	nop    

00004b30 <string_to_uint32>:
    4b30:	55                   	push   %ebp
    4b31:	31 ed                	xor    %ebp,%ebp
    4b33:	57                   	push   %edi
    4b34:	56                   	push   %esi
    4b35:	31 f6                	xor    %esi,%esi
    4b37:	53                   	push   %ebx
    4b38:	83 ec 0c             	sub    $0xc,%esp
    4b3b:	8b 5c 24 20          	mov    0x20(%esp,1),%ebx
    4b3f:	8b 7c 24 28          	mov    0x28(%esp,1),%edi
    4b43:	85 db                	test   %ebx,%ebx
    4b45:	89 5c 24 08          	mov    %ebx,0x8(%esp,1)
    4b49:	74 57                	je     4ba2 <string_to_uint32+0x72>
    4b4b:	8b 44 24 24          	mov    0x24(%esp,1),%eax
    4b4f:	85 c0                	test   %eax,%eax
    4b51:	74 4f                	je     4ba2 <string_to_uint32+0x72>
    4b53:	0f b6 03             	movzbl (%ebx),%eax
    4b56:	3c 30                	cmp    $0x30,%al
    4b58:	0f 84 a2 00 00 00    	je     4c00 <string_to_uint32+0xd0>
    4b5e:	3c 78                	cmp    $0x78,%al
    4b60:	0f 84 7a 00 00 00    	je     4be0 <string_to_uint32+0xb0>
    4b66:	83 ec 08             	sub    $0x8,%esp
    4b69:	57                   	push   %edi
    4b6a:	0f b6 13             	movzbl (%ebx),%edx
    4b6d:	52                   	push   %edx
    4b6e:	e8 fc ff ff ff       	call   4b6f <string_to_uint32+0x3f>
    4b73:	83 c4 10             	add    $0x10,%esp
    4b76:	85 c0                	test   %eax,%eax
    4b78:	74 36                	je     4bb0 <string_to_uint32+0x80>
    4b7a:	0f b6 13             	movzbl (%ebx),%edx
    4b7d:	83 ec 0c             	sub    $0xc,%esp
    4b80:	43                   	inc    %ebx
    4b81:	52                   	push   %edx
    4b82:	e8 fc ff ff ff       	call   4b83 <string_to_uint32+0x53>
    4b87:	89 c2                	mov    %eax,%edx
    4b89:	83 c4 10             	add    $0x10,%esp
    4b8c:	39 fa                	cmp    %edi,%edx
    4b8e:	77 12                	ja     4ba2 <string_to_uint32+0x72>
    4b90:	89 f1                	mov    %esi,%ecx
    4b92:	0f af f7             	imul   %edi,%esi
    4b95:	01 d6                	add    %edx,%esi
    4b97:	39 f1                	cmp    %esi,%ecx
    4b99:	76 cb                	jbe    4b66 <string_to_uint32+0x36>
    4b9b:	bd 01 00 00 00       	mov    $0x1,%ebp
    4ba0:	eb c4                	jmp    4b66 <string_to_uint32+0x36>
    4ba2:	b8 01 00 00 00       	mov    $0x1,%eax
    4ba7:	83 c4 0c             	add    $0xc,%esp
    4baa:	5b                   	pop    %ebx
    4bab:	5e                   	pop    %esi
    4bac:	5f                   	pop    %edi
    4bad:	5d                   	pop    %ebp
    4bae:	c3                   	ret    
    4baf:	90                   	nop    
    4bb0:	8b 44 24 2c          	mov    0x2c(%esp,1),%eax
    4bb4:	85 c0                	test   %eax,%eax
    4bb6:	74 0c                	je     4bc4 <string_to_uint32+0x94>
    4bb8:	8b 7c 24 08          	mov    0x8(%esp,1),%edi
    4bbc:	8b 44 24 2c          	mov    0x2c(%esp,1),%eax
    4bc0:	29 fb                	sub    %edi,%ebx
    4bc2:	89 18                	mov    %ebx,(%eax)
    4bc4:	85 ed                	test   %ebp,%ebp
    4bc6:	8b 44 24 24          	mov    0x24(%esp,1),%eax
    4bca:	0f 94 c1             	sete   %cl
    4bcd:	0f b6 d9             	movzbl %cl,%ebx
    4bd0:	4b                   	dec    %ebx
    4bd1:	09 de                	or     %ebx,%esi
    4bd3:	89 30                	mov    %esi,(%eax)
    4bd5:	31 c0                	xor    %eax,%eax
    4bd7:	eb ce                	jmp    4ba7 <string_to_uint32+0x77>
    4bd9:	8d b4 26 00 00 00 00 	lea    0x0(%esi,1),%esi
    4be0:	83 ff 10             	cmp    $0x10,%edi
    4be3:	75 81                	jne    4b66 <string_to_uint32+0x36>
    4be5:	43                   	inc    %ebx
    4be6:	80 3b 30             	cmpb   $0x30,(%ebx)
    4be9:	0f 85 77 ff ff ff    	jne    4b66 <string_to_uint32+0x36>
    4bef:	90                   	nop    
    4bf0:	43                   	inc    %ebx
    4bf1:	80 3b 30             	cmpb   $0x30,(%ebx)
    4bf4:	74 fa                	je     4bf0 <string_to_uint32+0xc0>
    4bf6:	e9 6b ff ff ff       	jmp    4b66 <string_to_uint32+0x36>
    4bfb:	90                   	nop    
    4bfc:	8d 74 26 00          	lea    0x0(%esi,1),%esi
    4c00:	43                   	inc    %ebx
    4c01:	0f b6 03             	movzbl (%ebx),%eax
    4c04:	3c 30                	cmp    $0x30,%al
    4c06:	0f 85 52 ff ff ff    	jne    4b5e <string_to_uint32+0x2e>
    4c0c:	eb f2                	jmp    4c00 <string_to_uint32+0xd0>
